

Microchip Technology PIC LITE Macro Assembler V1.34 build -361300703 
                                                                                               Tue Dec 15 09:34:14 2015

Microchip Technology Omniscient Code Generator (Lite mode) build 201502162209
     1                           	processor	16LF1618
     2                           	opt	pw 120
     3                           	opt	lm
     4                           	psect	stringtext,global,reloc=256,class=STRCODE,delta=2
     5                           	psect	cinit,global,class=CODE,merge=1,delta=2
     6                           	psect	bssCOMMON,global,class=COMMON,space=1,delta=1
     7                           	psect	cstackCOMMON,global,class=COMMON,space=1,delta=1
     8                           	psect	maintext,global,class=CODE,merge=1,split=1,delta=2
     9                           	psect	text1,local,class=CODE,merge=1,delta=2
    10                           	psect	text2,local,class=CODE,merge=1,delta=2
    11                           	psect	text3,local,class=CODE,merge=1,delta=2
    12                           	psect	text4,local,class=CODE,merge=1,delta=2
    13                           	psect	text5,local,class=CODE,merge=1,delta=2
    14                           	psect	text6,local,class=CODE,merge=1,delta=2
    15                           	psect	text7,local,class=CODE,merge=1,delta=2
    16                           	psect	text8,local,class=CODE,merge=1,delta=2
    17                           	psect	text9,local,class=CODE,merge=1,delta=2
    18                           	dabs	1,0x7E,2
    19  0000                     	;# 
    20  0001                     	;# 
    21  0002                     	;# 
    22  0003                     	;# 
    23  0004                     	;# 
    24  0005                     	;# 
    25  0006                     	;# 
    26  0007                     	;# 
    27  0008                     	;# 
    28  0009                     	;# 
    29  000A                     	;# 
    30  000B                     	;# 
    31  000C                     	;# 
    32  000D                     	;# 
    33  000E                     	;# 
    34  0010                     	;# 
    35  0011                     	;# 
    36  0012                     	;# 
    37  0013                     	;# 
    38  0014                     	;# 
    39  0015                     	;# 
    40  0016                     	;# 
    41  0016                     	;# 
    42  0017                     	;# 
    43  0018                     	;# 
    44  0019                     	;# 
    45  001A                     	;# 
    46  001A                     	;# 
    47  001B                     	;# 
    48  001B                     	;# 
    49  001C                     	;# 
    50  001D                     	;# 
    51  001E                     	;# 
    52  001F                     	;# 
    53  008C                     	;# 
    54  008D                     	;# 
    55  008E                     	;# 
    56  0090                     	;# 
    57  0091                     	;# 
    58  0092                     	;# 
    59  0093                     	;# 
    60  0094                     	;# 
    61  0095                     	;# 
    62  0096                     	;# 
    63  0098                     	;# 
    64  0099                     	;# 
    65  009A                     	;# 
    66  009B                     	;# 
    67  009B                     	;# 
    68  009C                     	;# 
    69  009D                     	;# 
    70  009E                     	;# 
    71  009F                     	;# 
    72  010C                     	;# 
    73  010D                     	;# 
    74  010E                     	;# 
    75  0111                     	;# 
    76  0112                     	;# 
    77  0113                     	;# 
    78  0114                     	;# 
    79  0115                     	;# 
    80  0116                     	;# 
    81  0117                     	;# 
    82  0118                     	;# 
    83  0119                     	;# 
    84  011C                     	;# 
    85  018C                     	;# 
    86  018D                     	;# 
    87  018E                     	;# 
    88  0191                     	;# 
    89  0191                     	;# 
    90  0192                     	;# 
    91  0193                     	;# 
    92  0193                     	;# 
    93  0194                     	;# 
    94  0195                     	;# 
    95  0196                     	;# 
    96  0199                     	;# 
    97  0199                     	;# 
    98  0199                     	;# 
    99  019A                     	;# 
   100  019A                     	;# 
   101  019A                     	;# 
   102  019B                     	;# 
   103  019B                     	;# 
   104  019B                     	;# 
   105  019B                     	;# 
   106  019B                     	;# 
   107  019C                     	;# 
   108  019C                     	;# 
   109  019C                     	;# 
   110  019D                     	;# 
   111  019D                     	;# 
   112  019D                     	;# 
   113  019E                     	;# 
   114  019E                     	;# 
   115  019E                     	;# 
   116  019F                     	;# 
   117  019F                     	;# 
   118  019F                     	;# 
   119  019F                     	;# 
   120  019F                     	;# 
   121  020C                     	;# 
   122  020D                     	;# 
   123  020E                     	;# 
   124  0211                     	;# 
   125  0211                     	;# 
   126  0212                     	;# 
   127  0212                     	;# 
   128  0213                     	;# 
   129  0213                     	;# 
   130  0214                     	;# 
   131  0214                     	;# 
   132  0215                     	;# 
   133  0215                     	;# 
   134  0215                     	;# 
   135  0215                     	;# 
   136  0216                     	;# 
   137  0216                     	;# 
   138  0217                     	;# 
   139  0217                     	;# 
   140  028C                     	;# 
   141  028D                     	;# 
   142  028E                     	;# 
   143  0291                     	;# 
   144  0291                     	;# 
   145  0292                     	;# 
   146  0293                     	;# 
   147  0294                     	;# 
   148  0298                     	;# 
   149  0298                     	;# 
   150  0299                     	;# 
   151  029A                     	;# 
   152  029B                     	;# 
   153  029E                     	;# 
   154  030C                     	;# 
   155  030D                     	;# 
   156  030E                     	;# 
   157  038C                     	;# 
   158  038D                     	;# 
   159  038E                     	;# 
   160  0391                     	;# 
   161  0392                     	;# 
   162  0393                     	;# 
   163  0394                     	;# 
   164  0395                     	;# 
   165  0396                     	;# 
   166  0397                     	;# 
   167  0398                     	;# 
   168  0399                     	;# 
   169  040E                     	;# 
   170  0413                     	;# 
   171  0413                     	;# 
   172  0414                     	;# 
   173  0414                     	;# 
   174  0415                     	;# 
   175  0416                     	;# 
   176  0417                     	;# 
   177  0418                     	;# 
   178  041A                     	;# 
   179  041A                     	;# 
   180  041B                     	;# 
   181  041B                     	;# 
   182  041C                     	;# 
   183  041D                     	;# 
   184  041E                     	;# 
   185  041F                     	;# 
   186  0493                     	;# 
   187  0494                     	;# 
   188  0495                     	;# 
   189  0496                     	;# 
   190  049A                     	;# 
   191  049B                     	;# 
   192  049C                     	;# 
   193  049D                     	;# 
   194  058C                     	;# 
   195  058C                     	;# 
   196  058D                     	;# 
   197  058E                     	;# 
   198  058E                     	;# 
   199  058F                     	;# 
   200  0590                     	;# 
   201  0590                     	;# 
   202  0591                     	;# 
   203  0592                     	;# 
   204  0592                     	;# 
   205  0593                     	;# 
   206  0594                     	;# 
   207  0594                     	;# 
   208  0595                     	;# 
   209  0596                     	;# 
   210  0596                     	;# 
   211  0597                     	;# 
   212  0598                     	;# 
   213  0599                     	;# 
   214  059A                     	;# 
   215  059B                     	;# 
   216  059B                     	;# 
   217  059C                     	;# 
   218  059D                     	;# 
   219  060C                     	;# 
   220  060C                     	;# 
   221  060D                     	;# 
   222  060E                     	;# 
   223  060F                     	;# 
   224  060F                     	;# 
   225  0610                     	;# 
   226  0611                     	;# 
   227  0612                     	;# 
   228  0613                     	;# 
   229  0614                     	;# 
   230  0617                     	;# 
   231  0618                     	;# 
   232  0619                     	;# 
   233  061A                     	;# 
   234  061B                     	;# 
   235  061C                     	;# 
   236  0691                     	;# 
   237  0692                     	;# 
   238  0693                     	;# 
   239  0694                     	;# 
   240  0695                     	;# 
   241  0696                     	;# 
   242  0697                     	;# 
   243  0699                     	;# 
   244  069A                     	;# 
   245  0711                     	;# 
   246  0712                     	;# 
   247  0713                     	;# 
   248  0714                     	;# 
   249  0715                     	;# 
   250  0718                     	;# 
   251  0718                     	;# 
   252  0719                     	;# 
   253  071A                     	;# 
   254  071A                     	;# 
   255  071B                     	;# 
   256  071C                     	;# 
   257  071D                     	;# 
   258  0791                     	;# 
   259  0791                     	;# 
   260  0792                     	;# 
   261  0793                     	;# 
   262  0793                     	;# 
   263  0794                     	;# 
   264  0795                     	;# 
   265  0795                     	;# 
   266  0796                     	;# 
   267  0797                     	;# 
   268  0797                     	;# 
   269  0798                     	;# 
   270  0799                     	;# 
   271  079A                     	;# 
   272  080C                     	;# 
   273  080C                     	;# 
   274  080D                     	;# 
   275  080E                     	;# 
   276  080E                     	;# 
   277  080F                     	;# 
   278  0810                     	;# 
   279  0810                     	;# 
   280  0811                     	;# 
   281  0812                     	;# 
   282  0812                     	;# 
   283  0813                     	;# 
   284  0814                     	;# 
   285  0815                     	;# 
   286  0816                     	;# 
   287  0817                     	;# 
   288  0818                     	;# 
   289  0819                     	;# 
   290  081A                     	;# 
   291  081A                     	;# 
   292  081B                     	;# 
   293  081C                     	;# 
   294  081C                     	;# 
   295  081D                     	;# 
   296  088C                     	;# 
   297  088D                     	;# 
   298  088E                     	;# 
   299  088F                     	;# 
   300  088F                     	;# 
   301  0890                     	;# 
   302  0891                     	;# 
   303  0892                     	;# 
   304  0893                     	;# 
   305  0893                     	;# 
   306  0894                     	;# 
   307  0895                     	;# 
   308  0896                     	;# 
   309  0897                     	;# 
   310  0897                     	;# 
   311  0898                     	;# 
   312  0899                     	;# 
   313  0D8C                     	;# 
   314  0D8C                     	;# 
   315  0D8D                     	;# 
   316  0D8E                     	;# 
   317  0D8F                     	;# 
   318  0D8F                     	;# 
   319  0D90                     	;# 
   320  0D91                     	;# 
   321  0D92                     	;# 
   322  0D92                     	;# 
   323  0D93                     	;# 
   324  0D94                     	;# 
   325  0D95                     	;# 
   326  0D95                     	;# 
   327  0D96                     	;# 
   328  0D97                     	;# 
   329  0D98                     	;# 
   330  0D99                     	;# 
   331  0D9A                     	;# 
   332  0D9B                     	;# 
   333  0D9C                     	;# 
   334  0D9D                     	;# 
   335  0D9E                     	;# 
   336  0D9E                     	;# 
   337  0D9F                     	;# 
   338  0DA0                     	;# 
   339  0DA1                     	;# 
   340  0DA1                     	;# 
   341  0DA2                     	;# 
   342  0DA3                     	;# 
   343  0DA4                     	;# 
   344  0DA4                     	;# 
   345  0DA5                     	;# 
   346  0DA6                     	;# 
   347  0DA7                     	;# 
   348  0DA7                     	;# 
   349  0DA8                     	;# 
   350  0DA9                     	;# 
   351  0DAA                     	;# 
   352  0DAB                     	;# 
   353  0DAC                     	;# 
   354  0DAD                     	;# 
   355  0DAE                     	;# 
   356  0DAF                     	;# 
   357  0E0F                     	;# 
   358  0E10                     	;# 
   359  0E11                     	;# 
   360  0E12                     	;# 
   361  0E13                     	;# 
   362  0E14                     	;# 
   363  0E15                     	;# 
   364  0E16                     	;# 
   365  0E17                     	;# 
   366  0E18                     	;# 
   367  0E19                     	;# 
   368  0E1A                     	;# 
   369  0E1B                     	;# 
   370  0E1C                     	;# 
   371  0E1D                     	;# 
   372  0E1E                     	;# 
   373  0E1F                     	;# 
   374  0E20                     	;# 
   375  0E21                     	;# 
   376  0E22                     	;# 
   377  0E23                     	;# 
   378  0E24                     	;# 
   379  0E25                     	;# 
   380  0E26                     	;# 
   381  0E27                     	;# 
   382  0E28                     	;# 
   383  0E29                     	;# 
   384  0E2A                     	;# 
   385  0E2B                     	;# 
   386  0E2C                     	;# 
   387  0E2D                     	;# 
   388  0E2E                     	;# 
   389  0E90                     	;# 
   390  0E91                     	;# 
   391  0E92                     	;# 
   392  0E94                     	;# 
   393  0E95                     	;# 
   394  0E9C                     	;# 
   395  0E9D                     	;# 
   396  0E9E                     	;# 
   397  0E9F                     	;# 
   398  0EA0                     	;# 
   399  0EA1                     	;# 
   400  0EA2                     	;# 
   401  0EA3                     	;# 
   402  0EA4                     	;# 
   403  0EA5                     	;# 
   404  0EA6                     	;# 
   405  0EA7                     	;# 
   406  0F0F                     	;# 
   407  0F10                     	;# 
   408  0F11                     	;# 
   409  0F12                     	;# 
   410  0F13                     	;# 
   411  0F14                     	;# 
   412  0F15                     	;# 
   413  0F16                     	;# 
   414  0F17                     	;# 
   415  0F18                     	;# 
   416  0F19                     	;# 
   417  0F1A                     	;# 
   418  0F1B                     	;# 
   419  0F1C                     	;# 
   420  0F1D                     	;# 
   421  0F1E                     	;# 
   422  0F1F                     	;# 
   423  0F20                     	;# 
   424  0F21                     	;# 
   425  0F22                     	;# 
   426  0F23                     	;# 
   427  0FE4                     	;# 
   428  0FE5                     	;# 
   429  0FE6                     	;# 
   430  0FE7                     	;# 
   431  0FE8                     	;# 
   432  0FE9                     	;# 
   433  0FEA                     	;# 
   434  0FEB                     	;# 
   435  0FED                     	;# 
   436  0FEE                     	;# 
   437  0FEF                     	;# 
   438  0000                     	;# 
   439  0001                     	;# 
   440  0002                     	;# 
   441  0003                     	;# 
   442  0004                     	;# 
   443  0005                     	;# 
   444  0006                     	;# 
   445  0007                     	;# 
   446  0008                     	;# 
   447  0009                     	;# 
   448  000A                     	;# 
   449  000B                     	;# 
   450  000C                     	;# 
   451  000D                     	;# 
   452  000E                     	;# 
   453  0010                     	;# 
   454  0011                     	;# 
   455  0012                     	;# 
   456  0013                     	;# 
   457  0014                     	;# 
   458  0015                     	;# 
   459  0016                     	;# 
   460  0016                     	;# 
   461  0017                     	;# 
   462  0018                     	;# 
   463  0019                     	;# 
   464  001A                     	;# 
   465  001A                     	;# 
   466  001B                     	;# 
   467  001B                     	;# 
   468  001C                     	;# 
   469  001D                     	;# 
   470  001E                     	;# 
   471  001F                     	;# 
   472  008C                     	;# 
   473  008D                     	;# 
   474  008E                     	;# 
   475  0090                     	;# 
   476  0091                     	;# 
   477  0092                     	;# 
   478  0093                     	;# 
   479  0094                     	;# 
   480  0095                     	;# 
   481  0096                     	;# 
   482  0098                     	;# 
   483  0099                     	;# 
   484  009A                     	;# 
   485  009B                     	;# 
   486  009B                     	;# 
   487  009C                     	;# 
   488  009D                     	;# 
   489  009E                     	;# 
   490  009F                     	;# 
   491  010C                     	;# 
   492  010D                     	;# 
   493  010E                     	;# 
   494  0111                     	;# 
   495  0112                     	;# 
   496  0113                     	;# 
   497  0114                     	;# 
   498  0115                     	;# 
   499  0116                     	;# 
   500  0117                     	;# 
   501  0118                     	;# 
   502  0119                     	;# 
   503  011C                     	;# 
   504  018C                     	;# 
   505  018D                     	;# 
   506  018E                     	;# 
   507  0191                     	;# 
   508  0191                     	;# 
   509  0192                     	;# 
   510  0193                     	;# 
   511  0193                     	;# 
   512  0194                     	;# 
   513  0195                     	;# 
   514  0196                     	;# 
   515  0199                     	;# 
   516  0199                     	;# 
   517  0199                     	;# 
   518  019A                     	;# 
   519  019A                     	;# 
   520  019A                     	;# 
   521  019B                     	;# 
   522  019B                     	;# 
   523  019B                     	;# 
   524  019B                     	;# 
   525  019B                     	;# 
   526  019C                     	;# 
   527  019C                     	;# 
   528  019C                     	;# 
   529  019D                     	;# 
   530  019D                     	;# 
   531  019D                     	;# 
   532  019E                     	;# 
   533  019E                     	;# 
   534  019E                     	;# 
   535  019F                     	;# 
   536  019F                     	;# 
   537  019F                     	;# 
   538  019F                     	;# 
   539  019F                     	;# 
   540  020C                     	;# 
   541  020D                     	;# 
   542  020E                     	;# 
   543  0211                     	;# 
   544  0211                     	;# 
   545  0212                     	;# 
   546  0212                     	;# 
   547  0213                     	;# 
   548  0213                     	;# 
   549  0214                     	;# 
   550  0214                     	;# 
   551  0215                     	;# 
   552  0215                     	;# 
   553  0215                     	;# 
   554  0215                     	;# 
   555  0216                     	;# 
   556  0216                     	;# 
   557  0217                     	;# 
   558  0217                     	;# 
   559  028C                     	;# 
   560  028D                     	;# 
   561  028E                     	;# 
   562  0291                     	;# 
   563  0291                     	;# 
   564  0292                     	;# 
   565  0293                     	;# 
   566  0294                     	;# 
   567  0298                     	;# 
   568  0298                     	;# 
   569  0299                     	;# 
   570  029A                     	;# 
   571  029B                     	;# 
   572  029E                     	;# 
   573  030C                     	;# 
   574  030D                     	;# 
   575  030E                     	;# 
   576  038C                     	;# 
   577  038D                     	;# 
   578  038E                     	;# 
   579  0391                     	;# 
   580  0392                     	;# 
   581  0393                     	;# 
   582  0394                     	;# 
   583  0395                     	;# 
   584  0396                     	;# 
   585  0397                     	;# 
   586  0398                     	;# 
   587  0399                     	;# 
   588  040E                     	;# 
   589  0413                     	;# 
   590  0413                     	;# 
   591  0414                     	;# 
   592  0414                     	;# 
   593  0415                     	;# 
   594  0416                     	;# 
   595  0417                     	;# 
   596  0418                     	;# 
   597  041A                     	;# 
   598  041A                     	;# 
   599  041B                     	;# 
   600  041B                     	;# 
   601  041C                     	;# 
   602  041D                     	;# 
   603  041E                     	;# 
   604  041F                     	;# 
   605  0493                     	;# 
   606  0494                     	;# 
   607  0495                     	;# 
   608  0496                     	;# 
   609  049A                     	;# 
   610  049B                     	;# 
   611  049C                     	;# 
   612  049D                     	;# 
   613  058C                     	;# 
   614  058C                     	;# 
   615  058D                     	;# 
   616  058E                     	;# 
   617  058E                     	;# 
   618  058F                     	;# 
   619  0590                     	;# 
   620  0590                     	;# 
   621  0591                     	;# 
   622  0592                     	;# 
   623  0592                     	;# 
   624  0593                     	;# 
   625  0594                     	;# 
   626  0594                     	;# 
   627  0595                     	;# 
   628  0596                     	;# 
   629  0596                     	;# 
   630  0597                     	;# 
   631  0598                     	;# 
   632  0599                     	;# 
   633  059A                     	;# 
   634  059B                     	;# 
   635  059B                     	;# 
   636  059C                     	;# 
   637  059D                     	;# 
   638  060C                     	;# 
   639  060C                     	;# 
   640  060D                     	;# 
   641  060E                     	;# 
   642  060F                     	;# 
   643  060F                     	;# 
   644  0610                     	;# 
   645  0611                     	;# 
   646  0612                     	;# 
   647  0613                     	;# 
   648  0614                     	;# 
   649  0617                     	;# 
   650  0618                     	;# 
   651  0619                     	;# 
   652  061A                     	;# 
   653  061B                     	;# 
   654  061C                     	;# 
   655  0691                     	;# 
   656  0692                     	;# 
   657  0693                     	;# 
   658  0694                     	;# 
   659  0695                     	;# 
   660  0696                     	;# 
   661  0697                     	;# 
   662  0699                     	;# 
   663  069A                     	;# 
   664  0711                     	;# 
   665  0712                     	;# 
   666  0713                     	;# 
   667  0714                     	;# 
   668  0715                     	;# 
   669  0718                     	;# 
   670  0718                     	;# 
   671  0719                     	;# 
   672  071A                     	;# 
   673  071A                     	;# 
   674  071B                     	;# 
   675  071C                     	;# 
   676  071D                     	;# 
   677  0791                     	;# 
   678  0791                     	;# 
   679  0792                     	;# 
   680  0793                     	;# 
   681  0793                     	;# 
   682  0794                     	;# 
   683  0795                     	;# 
   684  0795                     	;# 
   685  0796                     	;# 
   686  0797                     	;# 
   687  0797                     	;# 
   688  0798                     	;# 
   689  0799                     	;# 
   690  079A                     	;# 
   691  080C                     	;# 
   692  080C                     	;# 
   693  080D                     	;# 
   694  080E                     	;# 
   695  080E                     	;# 
   696  080F                     	;# 
   697  0810                     	;# 
   698  0810                     	;# 
   699  0811                     	;# 
   700  0812                     	;# 
   701  0812                     	;# 
   702  0813                     	;# 
   703  0814                     	;# 
   704  0815                     	;# 
   705  0816                     	;# 
   706  0817                     	;# 
   707  0818                     	;# 
   708  0819                     	;# 
   709  081A                     	;# 
   710  081A                     	;# 
   711  081B                     	;# 
   712  081C                     	;# 
   713  081C                     	;# 
   714  081D                     	;# 
   715  088C                     	;# 
   716  088D                     	;# 
   717  088E                     	;# 
   718  088F                     	;# 
   719  088F                     	;# 
   720  0890                     	;# 
   721  0891                     	;# 
   722  0892                     	;# 
   723  0893                     	;# 
   724  0893                     	;# 
   725  0894                     	;# 
   726  0895                     	;# 
   727  0896                     	;# 
   728  0897                     	;# 
   729  0897                     	;# 
   730  0898                     	;# 
   731  0899                     	;# 
   732  0D8C                     	;# 
   733  0D8C                     	;# 
   734  0D8D                     	;# 
   735  0D8E                     	;# 
   736  0D8F                     	;# 
   737  0D8F                     	;# 
   738  0D90                     	;# 
   739  0D91                     	;# 
   740  0D92                     	;# 
   741  0D92                     	;# 
   742  0D93                     	;# 
   743  0D94                     	;# 
   744  0D95                     	;# 
   745  0D95                     	;# 
   746  0D96                     	;# 
   747  0D97                     	;# 
   748  0D98                     	;# 
   749  0D99                     	;# 
   750  0D9A                     	;# 
   751  0D9B                     	;# 
   752  0D9C                     	;# 
   753  0D9D                     	;# 
   754  0D9E                     	;# 
   755  0D9E                     	;# 
   756  0D9F                     	;# 
   757  0DA0                     	;# 
   758  0DA1                     	;# 
   759  0DA1                     	;# 
   760  0DA2                     	;# 
   761  0DA3                     	;# 
   762  0DA4                     	;# 
   763  0DA4                     	;# 
   764  0DA5                     	;# 
   765  0DA6                     	;# 
   766  0DA7                     	;# 
   767  0DA7                     	;# 
   768  0DA8                     	;# 
   769  0DA9                     	;# 
   770  0DAA                     	;# 
   771  0DAB                     	;# 
   772  0DAC                     	;# 
   773  0DAD                     	;# 
   774  0DAE                     	;# 
   775  0DAF                     	;# 
   776  0E0F                     	;# 
   777  0E10                     	;# 
   778  0E11                     	;# 
   779  0E12                     	;# 
   780  0E13                     	;# 
   781  0E14                     	;# 
   782  0E15                     	;# 
   783  0E16                     	;# 
   784  0E17                     	;# 
   785  0E18                     	;# 
   786  0E19                     	;# 
   787  0E1A                     	;# 
   788  0E1B                     	;# 
   789  0E1C                     	;# 
   790  0E1D                     	;# 
   791  0E1E                     	;# 
   792  0E1F                     	;# 
   793  0E20                     	;# 
   794  0E21                     	;# 
   795  0E22                     	;# 
   796  0E23                     	;# 
   797  0E24                     	;# 
   798  0E25                     	;# 
   799  0E26                     	;# 
   800  0E27                     	;# 
   801  0E28                     	;# 
   802  0E29                     	;# 
   803  0E2A                     	;# 
   804  0E2B                     	;# 
   805  0E2C                     	;# 
   806  0E2D                     	;# 
   807  0E2E                     	;# 
   808  0E90                     	;# 
   809  0E91                     	;# 
   810  0E92                     	;# 
   811  0E94                     	;# 
   812  0E95                     	;# 
   813  0E9C                     	;# 
   814  0E9D                     	;# 
   815  0E9E                     	;# 
   816  0E9F                     	;# 
   817  0EA0                     	;# 
   818  0EA1                     	;# 
   819  0EA2                     	;# 
   820  0EA3                     	;# 
   821  0EA4                     	;# 
   822  0EA5                     	;# 
   823  0EA6                     	;# 
   824  0EA7                     	;# 
   825  0F0F                     	;# 
   826  0F10                     	;# 
   827  0F11                     	;# 
   828  0F12                     	;# 
   829  0F13                     	;# 
   830  0F14                     	;# 
   831  0F15                     	;# 
   832  0F16                     	;# 
   833  0F17                     	;# 
   834  0F18                     	;# 
   835  0F19                     	;# 
   836  0F1A                     	;# 
   837  0F1B                     	;# 
   838  0F1C                     	;# 
   839  0F1D                     	;# 
   840  0F1E                     	;# 
   841  0F1F                     	;# 
   842  0F20                     	;# 
   843  0F21                     	;# 
   844  0F22                     	;# 
   845  0F23                     	;# 
   846  0FE4                     	;# 
   847  0FE5                     	;# 
   848  0FE6                     	;# 
   849  0FE7                     	;# 
   850  0FE8                     	;# 
   851  0FE9                     	;# 
   852  0FEA                     	;# 
   853  0FEB                     	;# 
   854  0FED                     	;# 
   855  0FEE                     	;# 
   856  0FEF                     	;# 
   857  0000                     	;# 
   858  0001                     	;# 
   859  0002                     	;# 
   860  0003                     	;# 
   861  0004                     	;# 
   862  0005                     	;# 
   863  0006                     	;# 
   864  0007                     	;# 
   865  0008                     	;# 
   866  0009                     	;# 
   867  000A                     	;# 
   868  000B                     	;# 
   869  000C                     	;# 
   870  000D                     	;# 
   871  000E                     	;# 
   872  0010                     	;# 
   873  0011                     	;# 
   874  0012                     	;# 
   875  0013                     	;# 
   876  0014                     	;# 
   877  0015                     	;# 
   878  0016                     	;# 
   879  0016                     	;# 
   880  0017                     	;# 
   881  0018                     	;# 
   882  0019                     	;# 
   883  001A                     	;# 
   884  001A                     	;# 
   885  001B                     	;# 
   886  001B                     	;# 
   887  001C                     	;# 
   888  001D                     	;# 
   889  001E                     	;# 
   890  001F                     	;# 
   891  008C                     	;# 
   892  008D                     	;# 
   893  008E                     	;# 
   894  0090                     	;# 
   895  0091                     	;# 
   896  0092                     	;# 
   897  0093                     	;# 
   898  0094                     	;# 
   899  0095                     	;# 
   900  0096                     	;# 
   901  0098                     	;# 
   902  0099                     	;# 
   903  009A                     	;# 
   904  009B                     	;# 
   905  009B                     	;# 
   906  009C                     	;# 
   907  009D                     	;# 
   908  009E                     	;# 
   909  009F                     	;# 
   910  010C                     	;# 
   911  010D                     	;# 
   912  010E                     	;# 
   913  0111                     	;# 
   914  0112                     	;# 
   915  0113                     	;# 
   916  0114                     	;# 
   917  0115                     	;# 
   918  0116                     	;# 
   919  0117                     	;# 
   920  0118                     	;# 
   921  0119                     	;# 
   922  011C                     	;# 
   923  018C                     	;# 
   924  018D                     	;# 
   925  018E                     	;# 
   926  0191                     	;# 
   927  0191                     	;# 
   928  0192                     	;# 
   929  0193                     	;# 
   930  0193                     	;# 
   931  0194                     	;# 
   932  0195                     	;# 
   933  0196                     	;# 
   934  0199                     	;# 
   935  0199                     	;# 
   936  0199                     	;# 
   937  019A                     	;# 
   938  019A                     	;# 
   939  019A                     	;# 
   940  019B                     	;# 
   941  019B                     	;# 
   942  019B                     	;# 
   943  019B                     	;# 
   944  019B                     	;# 
   945  019C                     	;# 
   946  019C                     	;# 
   947  019C                     	;# 
   948  019D                     	;# 
   949  019D                     	;# 
   950  019D                     	;# 
   951  019E                     	;# 
   952  019E                     	;# 
   953  019E                     	;# 
   954  019F                     	;# 
   955  019F                     	;# 
   956  019F                     	;# 
   957  019F                     	;# 
   958  019F                     	;# 
   959  020C                     	;# 
   960  020D                     	;# 
   961  020E                     	;# 
   962  0211                     	;# 
   963  0211                     	;# 
   964  0212                     	;# 
   965  0212                     	;# 
   966  0213                     	;# 
   967  0213                     	;# 
   968  0214                     	;# 
   969  0214                     	;# 
   970  0215                     	;# 
   971  0215                     	;# 
   972  0215                     	;# 
   973  0215                     	;# 
   974  0216                     	;# 
   975  0216                     	;# 
   976  0217                     	;# 
   977  0217                     	;# 
   978  028C                     	;# 
   979  028D                     	;# 
   980  028E                     	;# 
   981  0291                     	;# 
   982  0291                     	;# 
   983  0292                     	;# 
   984  0293                     	;# 
   985  0294                     	;# 
   986  0298                     	;# 
   987  0298                     	;# 
   988  0299                     	;# 
   989  029A                     	;# 
   990  029B                     	;# 
   991  029E                     	;# 
   992  030C                     	;# 
   993  030D                     	;# 
   994  030E                     	;# 
   995  038C                     	;# 
   996  038D                     	;# 
   997  038E                     	;# 
   998  0391                     	;# 
   999  0392                     	;# 
  1000  0393                     	;# 
  1001  0394                     	;# 
  1002  0395                     	;# 
  1003  0396                     	;# 
  1004  0397                     	;# 
  1005  0398                     	;# 
  1006  0399                     	;# 
  1007  040E                     	;# 
  1008  0413                     	;# 
  1009  0413                     	;# 
  1010  0414                     	;# 
  1011  0414                     	;# 
  1012  0415                     	;# 
  1013  0416                     	;# 
  1014  0417                     	;# 
  1015  0418                     	;# 
  1016  041A                     	;# 
  1017  041A                     	;# 
  1018  041B                     	;# 
  1019  041B                     	;# 
  1020  041C                     	;# 
  1021  041D                     	;# 
  1022  041E                     	;# 
  1023  041F                     	;# 
  1024  0493                     	;# 
  1025  0494                     	;# 
  1026  0495                     	;# 
  1027  0496                     	;# 
  1028  049A                     	;# 
  1029  049B                     	;# 
  1030  049C                     	;# 
  1031  049D                     	;# 
  1032  058C                     	;# 
  1033  058C                     	;# 
  1034  058D                     	;# 
  1035  058E                     	;# 
  1036  058E                     	;# 
  1037  058F                     	;# 
  1038  0590                     	;# 
  1039  0590                     	;# 
  1040  0591                     	;# 
  1041  0592                     	;# 
  1042  0592                     	;# 
  1043  0593                     	;# 
  1044  0594                     	;# 
  1045  0594                     	;# 
  1046  0595                     	;# 
  1047  0596                     	;# 
  1048  0596                     	;# 
  1049  0597                     	;# 
  1050  0598                     	;# 
  1051  0599                     	;# 
  1052  059A                     	;# 
  1053  059B                     	;# 
  1054  059B                     	;# 
  1055  059C                     	;# 
  1056  059D                     	;# 
  1057  060C                     	;# 
  1058  060C                     	;# 
  1059  060D                     	;# 
  1060  060E                     	;# 
  1061  060F                     	;# 
  1062  060F                     	;# 
  1063  0610                     	;# 
  1064  0611                     	;# 
  1065  0612                     	;# 
  1066  0613                     	;# 
  1067  0614                     	;# 
  1068  0617                     	;# 
  1069  0618                     	;# 
  1070  0619                     	;# 
  1071  061A                     	;# 
  1072  061B                     	;# 
  1073  061C                     	;# 
  1074  0691                     	;# 
  1075  0692                     	;# 
  1076  0693                     	;# 
  1077  0694                     	;# 
  1078  0695                     	;# 
  1079  0696                     	;# 
  1080  0697                     	;# 
  1081  0699                     	;# 
  1082  069A                     	;# 
  1083  0711                     	;# 
  1084  0712                     	;# 
  1085  0713                     	;# 
  1086  0714                     	;# 
  1087  0715                     	;# 
  1088  0718                     	;# 
  1089  0718                     	;# 
  1090  0719                     	;# 
  1091  071A                     	;# 
  1092  071A                     	;# 
  1093  071B                     	;# 
  1094  071C                     	;# 
  1095  071D                     	;# 
  1096  0791                     	;# 
  1097  0791                     	;# 
  1098  0792                     	;# 
  1099  0793                     	;# 
  1100  0793                     	;# 
  1101  0794                     	;# 
  1102  0795                     	;# 
  1103  0795                     	;# 
  1104  0796                     	;# 
  1105  0797                     	;# 
  1106  0797                     	;# 
  1107  0798                     	;# 
  1108  0799                     	;# 
  1109  079A                     	;# 
  1110  080C                     	;# 
  1111  080C                     	;# 
  1112  080D                     	;# 
  1113  080E                     	;# 
  1114  080E                     	;# 
  1115  080F                     	;# 
  1116  0810                     	;# 
  1117  0810                     	;# 
  1118  0811                     	;# 
  1119  0812                     	;# 
  1120  0812                     	;# 
  1121  0813                     	;# 
  1122  0814                     	;# 
  1123  0815                     	;# 
  1124  0816                     	;# 
  1125  0817                     	;# 
  1126  0818                     	;# 
  1127  0819                     	;# 
  1128  081A                     	;# 
  1129  081A                     	;# 
  1130  081B                     	;# 
  1131  081C                     	;# 
  1132  081C                     	;# 
  1133  081D                     	;# 
  1134  088C                     	;# 
  1135  088D                     	;# 
  1136  088E                     	;# 
  1137  088F                     	;# 
  1138  088F                     	;# 
  1139  0890                     	;# 
  1140  0891                     	;# 
  1141  0892                     	;# 
  1142  0893                     	;# 
  1143  0893                     	;# 
  1144  0894                     	;# 
  1145  0895                     	;# 
  1146  0896                     	;# 
  1147  0897                     	;# 
  1148  0897                     	;# 
  1149  0898                     	;# 
  1150  0899                     	;# 
  1151  0D8C                     	;# 
  1152  0D8C                     	;# 
  1153  0D8D                     	;# 
  1154  0D8E                     	;# 
  1155  0D8F                     	;# 
  1156  0D8F                     	;# 
  1157  0D90                     	;# 
  1158  0D91                     	;# 
  1159  0D92                     	;# 
  1160  0D92                     	;# 
  1161  0D93                     	;# 
  1162  0D94                     	;# 
  1163  0D95                     	;# 
  1164  0D95                     	;# 
  1165  0D96                     	;# 
  1166  0D97                     	;# 
  1167  0D98                     	;# 
  1168  0D99                     	;# 
  1169  0D9A                     	;# 
  1170  0D9B                     	;# 
  1171  0D9C                     	;# 
  1172  0D9D                     	;# 
  1173  0D9E                     	;# 
  1174  0D9E                     	;# 
  1175  0D9F                     	;# 
  1176  0DA0                     	;# 
  1177  0DA1                     	;# 
  1178  0DA1                     	;# 
  1179  0DA2                     	;# 
  1180  0DA3                     	;# 
  1181  0DA4                     	;# 
  1182  0DA4                     	;# 
  1183  0DA5                     	;# 
  1184  0DA6                     	;# 
  1185  0DA7                     	;# 
  1186  0DA7                     	;# 
  1187  0DA8                     	;# 
  1188  0DA9                     	;# 
  1189  0DAA                     	;# 
  1190  0DAB                     	;# 
  1191  0DAC                     	;# 
  1192  0DAD                     	;# 
  1193  0DAE                     	;# 
  1194  0DAF                     	;# 
  1195  0E0F                     	;# 
  1196  0E10                     	;# 
  1197  0E11                     	;# 
  1198  0E12                     	;# 
  1199  0E13                     	;# 
  1200  0E14                     	;# 
  1201  0E15                     	;# 
  1202  0E16                     	;# 
  1203  0E17                     	;# 
  1204  0E18                     	;# 
  1205  0E19                     	;# 
  1206  0E1A                     	;# 
  1207  0E1B                     	;# 
  1208  0E1C                     	;# 
  1209  0E1D                     	;# 
  1210  0E1E                     	;# 
  1211  0E1F                     	;# 
  1212  0E20                     	;# 
  1213  0E21                     	;# 
  1214  0E22                     	;# 
  1215  0E23                     	;# 
  1216  0E24                     	;# 
  1217  0E25                     	;# 
  1218  0E26                     	;# 
  1219  0E27                     	;# 
  1220  0E28                     	;# 
  1221  0E29                     	;# 
  1222  0E2A                     	;# 
  1223  0E2B                     	;# 
  1224  0E2C                     	;# 
  1225  0E2D                     	;# 
  1226  0E2E                     	;# 
  1227  0E90                     	;# 
  1228  0E91                     	;# 
  1229  0E92                     	;# 
  1230  0E94                     	;# 
  1231  0E95                     	;# 
  1232  0E9C                     	;# 
  1233  0E9D                     	;# 
  1234  0E9E                     	;# 
  1235  0E9F                     	;# 
  1236  0EA0                     	;# 
  1237  0EA1                     	;# 
  1238  0EA2                     	;# 
  1239  0EA3                     	;# 
  1240  0EA4                     	;# 
  1241  0EA5                     	;# 
  1242  0EA6                     	;# 
  1243  0EA7                     	;# 
  1244  0F0F                     	;# 
  1245  0F10                     	;# 
  1246  0F11                     	;# 
  1247  0F12                     	;# 
  1248  0F13                     	;# 
  1249  0F14                     	;# 
  1250  0F15                     	;# 
  1251  0F16                     	;# 
  1252  0F17                     	;# 
  1253  0F18                     	;# 
  1254  0F19                     	;# 
  1255  0F1A                     	;# 
  1256  0F1B                     	;# 
  1257  0F1C                     	;# 
  1258  0F1D                     	;# 
  1259  0F1E                     	;# 
  1260  0F1F                     	;# 
  1261  0F20                     	;# 
  1262  0F21                     	;# 
  1263  0F22                     	;# 
  1264  0F23                     	;# 
  1265  0FE4                     	;# 
  1266  0FE5                     	;# 
  1267  0FE6                     	;# 
  1268  0FE7                     	;# 
  1269  0FE8                     	;# 
  1270  0FE9                     	;# 
  1271  0FEA                     	;# 
  1272  0FEB                     	;# 
  1273  0FED                     	;# 
  1274  0FEE                     	;# 
  1275  0FEF                     	;# 
  1276  0000                     	;# 
  1277  0001                     	;# 
  1278  0002                     	;# 
  1279  0003                     	;# 
  1280  0004                     	;# 
  1281  0005                     	;# 
  1282  0006                     	;# 
  1283  0007                     	;# 
  1284  0008                     	;# 
  1285  0009                     	;# 
  1286  000A                     	;# 
  1287  000B                     	;# 
  1288  000C                     	;# 
  1289  000D                     	;# 
  1290  000E                     	;# 
  1291  0010                     	;# 
  1292  0011                     	;# 
  1293  0012                     	;# 
  1294  0013                     	;# 
  1295  0014                     	;# 
  1296  0015                     	;# 
  1297  0016                     	;# 
  1298  0016                     	;# 
  1299  0017                     	;# 
  1300  0018                     	;# 
  1301  0019                     	;# 
  1302  001A                     	;# 
  1303  001A                     	;# 
  1304  001B                     	;# 
  1305  001B                     	;# 
  1306  001C                     	;# 
  1307  001D                     	;# 
  1308  001E                     	;# 
  1309  001F                     	;# 
  1310  008C                     	;# 
  1311  008D                     	;# 
  1312  008E                     	;# 
  1313  0090                     	;# 
  1314  0091                     	;# 
  1315  0092                     	;# 
  1316  0093                     	;# 
  1317  0094                     	;# 
  1318  0095                     	;# 
  1319  0096                     	;# 
  1320  0098                     	;# 
  1321  0099                     	;# 
  1322  009A                     	;# 
  1323  009B                     	;# 
  1324  009B                     	;# 
  1325  009C                     	;# 
  1326  009D                     	;# 
  1327  009E                     	;# 
  1328  009F                     	;# 
  1329  010C                     	;# 
  1330  010D                     	;# 
  1331  010E                     	;# 
  1332  0111                     	;# 
  1333  0112                     	;# 
  1334  0113                     	;# 
  1335  0114                     	;# 
  1336  0115                     	;# 
  1337  0116                     	;# 
  1338  0117                     	;# 
  1339  0118                     	;# 
  1340  0119                     	;# 
  1341  011C                     	;# 
  1342  018C                     	;# 
  1343  018D                     	;# 
  1344  018E                     	;# 
  1345  0191                     	;# 
  1346  0191                     	;# 
  1347  0192                     	;# 
  1348  0193                     	;# 
  1349  0193                     	;# 
  1350  0194                     	;# 
  1351  0195                     	;# 
  1352  0196                     	;# 
  1353  0199                     	;# 
  1354  0199                     	;# 
  1355  0199                     	;# 
  1356  019A                     	;# 
  1357  019A                     	;# 
  1358  019A                     	;# 
  1359  019B                     	;# 
  1360  019B                     	;# 
  1361  019B                     	;# 
  1362  019B                     	;# 
  1363  019B                     	;# 
  1364  019C                     	;# 
  1365  019C                     	;# 
  1366  019C                     	;# 
  1367  019D                     	;# 
  1368  019D                     	;# 
  1369  019D                     	;# 
  1370  019E                     	;# 
  1371  019E                     	;# 
  1372  019E                     	;# 
  1373  019F                     	;# 
  1374  019F                     	;# 
  1375  019F                     	;# 
  1376  019F                     	;# 
  1377  019F                     	;# 
  1378  020C                     	;# 
  1379  020D                     	;# 
  1380  020E                     	;# 
  1381  0211                     	;# 
  1382  0211                     	;# 
  1383  0212                     	;# 
  1384  0212                     	;# 
  1385  0213                     	;# 
  1386  0213                     	;# 
  1387  0214                     	;# 
  1388  0214                     	;# 
  1389  0215                     	;# 
  1390  0215                     	;# 
  1391  0215                     	;# 
  1392  0215                     	;# 
  1393  0216                     	;# 
  1394  0216                     	;# 
  1395  0217                     	;# 
  1396  0217                     	;# 
  1397  028C                     	;# 
  1398  028D                     	;# 
  1399  028E                     	;# 
  1400  0291                     	;# 
  1401  0291                     	;# 
  1402  0292                     	;# 
  1403  0293                     	;# 
  1404  0294                     	;# 
  1405  0298                     	;# 
  1406  0298                     	;# 
  1407  0299                     	;# 
  1408  029A                     	;# 
  1409  029B                     	;# 
  1410  029E                     	;# 
  1411  030C                     	;# 
  1412  030D                     	;# 
  1413  030E                     	;# 
  1414  038C                     	;# 
  1415  038D                     	;# 
  1416  038E                     	;# 
  1417  0391                     	;# 
  1418  0392                     	;# 
  1419  0393                     	;# 
  1420  0394                     	;# 
  1421  0395                     	;# 
  1422  0396                     	;# 
  1423  0397                     	;# 
  1424  0398                     	;# 
  1425  0399                     	;# 
  1426  040E                     	;# 
  1427  0413                     	;# 
  1428  0413                     	;# 
  1429  0414                     	;# 
  1430  0414                     	;# 
  1431  0415                     	;# 
  1432  0416                     	;# 
  1433  0417                     	;# 
  1434  0418                     	;# 
  1435  041A                     	;# 
  1436  041A                     	;# 
  1437  041B                     	;# 
  1438  041B                     	;# 
  1439  041C                     	;# 
  1440  041D                     	;# 
  1441  041E                     	;# 
  1442  041F                     	;# 
  1443  0493                     	;# 
  1444  0494                     	;# 
  1445  0495                     	;# 
  1446  0496                     	;# 
  1447  049A                     	;# 
  1448  049B                     	;# 
  1449  049C                     	;# 
  1450  049D                     	;# 
  1451  058C                     	;# 
  1452  058C                     	;# 
  1453  058D                     	;# 
  1454  058E                     	;# 
  1455  058E                     	;# 
  1456  058F                     	;# 
  1457  0590                     	;# 
  1458  0590                     	;# 
  1459  0591                     	;# 
  1460  0592                     	;# 
  1461  0592                     	;# 
  1462  0593                     	;# 
  1463  0594                     	;# 
  1464  0594                     	;# 
  1465  0595                     	;# 
  1466  0596                     	;# 
  1467  0596                     	;# 
  1468  0597                     	;# 
  1469  0598                     	;# 
  1470  0599                     	;# 
  1471  059A                     	;# 
  1472  059B                     	;# 
  1473  059B                     	;# 
  1474  059C                     	;# 
  1475  059D                     	;# 
  1476  060C                     	;# 
  1477  060C                     	;# 
  1478  060D                     	;# 
  1479  060E                     	;# 
  1480  060F                     	;# 
  1481  060F                     	;# 
  1482  0610                     	;# 
  1483  0611                     	;# 
  1484  0612                     	;# 
  1485  0613                     	;# 
  1486  0614                     	;# 
  1487  0617                     	;# 
  1488  0618                     	;# 
  1489  0619                     	;# 
  1490  061A                     	;# 
  1491  061B                     	;# 
  1492  061C                     	;# 
  1493  0691                     	;# 
  1494  0692                     	;# 
  1495  0693                     	;# 
  1496  0694                     	;# 
  1497  0695                     	;# 
  1498  0696                     	;# 
  1499  0697                     	;# 
  1500  0699                     	;# 
  1501  069A                     	;# 
  1502  0711                     	;# 
  1503  0712                     	;# 
  1504  0713                     	;# 
  1505  0714                     	;# 
  1506  0715                     	;# 
  1507  0718                     	;# 
  1508  0718                     	;# 
  1509  0719                     	;# 
  1510  071A                     	;# 
  1511  071A                     	;# 
  1512  071B                     	;# 
  1513  071C                     	;# 
  1514  071D                     	;# 
  1515  0791                     	;# 
  1516  0791                     	;# 
  1517  0792                     	;# 
  1518  0793                     	;# 
  1519  0793                     	;# 
  1520  0794                     	;# 
  1521  0795                     	;# 
  1522  0795                     	;# 
  1523  0796                     	;# 
  1524  0797                     	;# 
  1525  0797                     	;# 
  1526  0798                     	;# 
  1527  0799                     	;# 
  1528  079A                     	;# 
  1529  080C                     	;# 
  1530  080C                     	;# 
  1531  080D                     	;# 
  1532  080E                     	;# 
  1533  080E                     	;# 
  1534  080F                     	;# 
  1535  0810                     	;# 
  1536  0810                     	;# 
  1537  0811                     	;# 
  1538  0812                     	;# 
  1539  0812                     	;# 
  1540  0813                     	;# 
  1541  0814                     	;# 
  1542  0815                     	;# 
  1543  0816                     	;# 
  1544  0817                     	;# 
  1545  0818                     	;# 
  1546  0819                     	;# 
  1547  081A                     	;# 
  1548  081A                     	;# 
  1549  081B                     	;# 
  1550  081C                     	;# 
  1551  081C                     	;# 
  1552  081D                     	;# 
  1553  088C                     	;# 
  1554  088D                     	;# 
  1555  088E                     	;# 
  1556  088F                     	;# 
  1557  088F                     	;# 
  1558  0890                     	;# 
  1559  0891                     	;# 
  1560  0892                     	;# 
  1561  0893                     	;# 
  1562  0893                     	;# 
  1563  0894                     	;# 
  1564  0895                     	;# 
  1565  0896                     	;# 
  1566  0897                     	;# 
  1567  0897                     	;# 
  1568  0898                     	;# 
  1569  0899                     	;# 
  1570  0D8C                     	;# 
  1571  0D8C                     	;# 
  1572  0D8D                     	;# 
  1573  0D8E                     	;# 
  1574  0D8F                     	;# 
  1575  0D8F                     	;# 
  1576  0D90                     	;# 
  1577  0D91                     	;# 
  1578  0D92                     	;# 
  1579  0D92                     	;# 
  1580  0D93                     	;# 
  1581  0D94                     	;# 
  1582  0D95                     	;# 
  1583  0D95                     	;# 
  1584  0D96                     	;# 
  1585  0D97                     	;# 
  1586  0D98                     	;# 
  1587  0D99                     	;# 
  1588  0D9A                     	;# 
  1589  0D9B                     	;# 
  1590  0D9C                     	;# 
  1591  0D9D                     	;# 
  1592  0D9E                     	;# 
  1593  0D9E                     	;# 
  1594  0D9F                     	;# 
  1595  0DA0                     	;# 
  1596  0DA1                     	;# 
  1597  0DA1                     	;# 
  1598  0DA2                     	;# 
  1599  0DA3                     	;# 
  1600  0DA4                     	;# 
  1601  0DA4                     	;# 
  1602  0DA5                     	;# 
  1603  0DA6                     	;# 
  1604  0DA7                     	;# 
  1605  0DA7                     	;# 
  1606  0DA8                     	;# 
  1607  0DA9                     	;# 
  1608  0DAA                     	;# 
  1609  0DAB                     	;# 
  1610  0DAC                     	;# 
  1611  0DAD                     	;# 
  1612  0DAE                     	;# 
  1613  0DAF                     	;# 
  1614  0E0F                     	;# 
  1615  0E10                     	;# 
  1616  0E11                     	;# 
  1617  0E12                     	;# 
  1618  0E13                     	;# 
  1619  0E14                     	;# 
  1620  0E15                     	;# 
  1621  0E16                     	;# 
  1622  0E17                     	;# 
  1623  0E18                     	;# 
  1624  0E19                     	;# 
  1625  0E1A                     	;# 
  1626  0E1B                     	;# 
  1627  0E1C                     	;# 
  1628  0E1D                     	;# 
  1629  0E1E                     	;# 
  1630  0E1F                     	;# 
  1631  0E20                     	;# 
  1632  0E21                     	;# 
  1633  0E22                     	;# 
  1634  0E23                     	;# 
  1635  0E24                     	;# 
  1636  0E25                     	;# 
  1637  0E26                     	;# 
  1638  0E27                     	;# 
  1639  0E28                     	;# 
  1640  0E29                     	;# 
  1641  0E2A                     	;# 
  1642  0E2B                     	;# 
  1643  0E2C                     	;# 
  1644  0E2D                     	;# 
  1645  0E2E                     	;# 
  1646  0E90                     	;# 
  1647  0E91                     	;# 
  1648  0E92                     	;# 
  1649  0E94                     	;# 
  1650  0E95                     	;# 
  1651  0E9C                     	;# 
  1652  0E9D                     	;# 
  1653  0E9E                     	;# 
  1654  0E9F                     	;# 
  1655  0EA0                     	;# 
  1656  0EA1                     	;# 
  1657  0EA2                     	;# 
  1658  0EA3                     	;# 
  1659  0EA4                     	;# 
  1660  0EA5                     	;# 
  1661  0EA6                     	;# 
  1662  0EA7                     	;# 
  1663  0F0F                     	;# 
  1664  0F10                     	;# 
  1665  0F11                     	;# 
  1666  0F12                     	;# 
  1667  0F13                     	;# 
  1668  0F14                     	;# 
  1669  0F15                     	;# 
  1670  0F16                     	;# 
  1671  0F17                     	;# 
  1672  0F18                     	;# 
  1673  0F19                     	;# 
  1674  0F1A                     	;# 
  1675  0F1B                     	;# 
  1676  0F1C                     	;# 
  1677  0F1D                     	;# 
  1678  0F1E                     	;# 
  1679  0F1F                     	;# 
  1680  0F20                     	;# 
  1681  0F21                     	;# 
  1682  0F22                     	;# 
  1683  0F23                     	;# 
  1684  0FE4                     	;# 
  1685  0FE5                     	;# 
  1686  0FE6                     	;# 
  1687  0FE7                     	;# 
  1688  0FE8                     	;# 
  1689  0FE9                     	;# 
  1690  0FEA                     	;# 
  1691  0FEB                     	;# 
  1692  0FED                     	;# 
  1693  0FEE                     	;# 
  1694  0FEF                     	;# 
  1695  0000                     	;# 
  1696  0001                     	;# 
  1697  0002                     	;# 
  1698  0003                     	;# 
  1699  0004                     	;# 
  1700  0005                     	;# 
  1701  0006                     	;# 
  1702  0007                     	;# 
  1703  0008                     	;# 
  1704  0009                     	;# 
  1705  000A                     	;# 
  1706  000B                     	;# 
  1707  000C                     	;# 
  1708  000D                     	;# 
  1709  000E                     	;# 
  1710  0010                     	;# 
  1711  0011                     	;# 
  1712  0012                     	;# 
  1713  0013                     	;# 
  1714  0014                     	;# 
  1715  0015                     	;# 
  1716  0016                     	;# 
  1717  0016                     	;# 
  1718  0017                     	;# 
  1719  0018                     	;# 
  1720  0019                     	;# 
  1721  001A                     	;# 
  1722  001A                     	;# 
  1723  001B                     	;# 
  1724  001B                     	;# 
  1725  001C                     	;# 
  1726  001D                     	;# 
  1727  001E                     	;# 
  1728  001F                     	;# 
  1729  008C                     	;# 
  1730  008D                     	;# 
  1731  008E                     	;# 
  1732  0090                     	;# 
  1733  0091                     	;# 
  1734  0092                     	;# 
  1735  0093                     	;# 
  1736  0094                     	;# 
  1737  0095                     	;# 
  1738  0096                     	;# 
  1739  0098                     	;# 
  1740  0099                     	;# 
  1741  009A                     	;# 
  1742  009B                     	;# 
  1743  009B                     	;# 
  1744  009C                     	;# 
  1745  009D                     	;# 
  1746  009E                     	;# 
  1747  009F                     	;# 
  1748  010C                     	;# 
  1749  010D                     	;# 
  1750  010E                     	;# 
  1751  0111                     	;# 
  1752  0112                     	;# 
  1753  0113                     	;# 
  1754  0114                     	;# 
  1755  0115                     	;# 
  1756  0116                     	;# 
  1757  0117                     	;# 
  1758  0118                     	;# 
  1759  0119                     	;# 
  1760  011C                     	;# 
  1761  018C                     	;# 
  1762  018D                     	;# 
  1763  018E                     	;# 
  1764  0191                     	;# 
  1765  0191                     	;# 
  1766  0192                     	;# 
  1767  0193                     	;# 
  1768  0193                     	;# 
  1769  0194                     	;# 
  1770  0195                     	;# 
  1771  0196                     	;# 
  1772  0199                     	;# 
  1773  0199                     	;# 
  1774  0199                     	;# 
  1775  019A                     	;# 
  1776  019A                     	;# 
  1777  019A                     	;# 
  1778  019B                     	;# 
  1779  019B                     	;# 
  1780  019B                     	;# 
  1781  019B                     	;# 
  1782  019B                     	;# 
  1783  019C                     	;# 
  1784  019C                     	;# 
  1785  019C                     	;# 
  1786  019D                     	;# 
  1787  019D                     	;# 
  1788  019D                     	;# 
  1789  019E                     	;# 
  1790  019E                     	;# 
  1791  019E                     	;# 
  1792  019F                     	;# 
  1793  019F                     	;# 
  1794  019F                     	;# 
  1795  019F                     	;# 
  1796  019F                     	;# 
  1797  020C                     	;# 
  1798  020D                     	;# 
  1799  020E                     	;# 
  1800  0211                     	;# 
  1801  0211                     	;# 
  1802  0212                     	;# 
  1803  0212                     	;# 
  1804  0213                     	;# 
  1805  0213                     	;# 
  1806  0214                     	;# 
  1807  0214                     	;# 
  1808  0215                     	;# 
  1809  0215                     	;# 
  1810  0215                     	;# 
  1811  0215                     	;# 
  1812  0216                     	;# 
  1813  0216                     	;# 
  1814  0217                     	;# 
  1815  0217                     	;# 
  1816  028C                     	;# 
  1817  028D                     	;# 
  1818  028E                     	;# 
  1819  0291                     	;# 
  1820  0291                     	;# 
  1821  0292                     	;# 
  1822  0293                     	;# 
  1823  0294                     	;# 
  1824  0298                     	;# 
  1825  0298                     	;# 
  1826  0299                     	;# 
  1827  029A                     	;# 
  1828  029B                     	;# 
  1829  029E                     	;# 
  1830  030C                     	;# 
  1831  030D                     	;# 
  1832  030E                     	;# 
  1833  038C                     	;# 
  1834  038D                     	;# 
  1835  038E                     	;# 
  1836  0391                     	;# 
  1837  0392                     	;# 
  1838  0393                     	;# 
  1839  0394                     	;# 
  1840  0395                     	;# 
  1841  0396                     	;# 
  1842  0397                     	;# 
  1843  0398                     	;# 
  1844  0399                     	;# 
  1845  040E                     	;# 
  1846  0413                     	;# 
  1847  0413                     	;# 
  1848  0414                     	;# 
  1849  0414                     	;# 
  1850  0415                     	;# 
  1851  0416                     	;# 
  1852  0417                     	;# 
  1853  0418                     	;# 
  1854  041A                     	;# 
  1855  041A                     	;# 
  1856  041B                     	;# 
  1857  041B                     	;# 
  1858  041C                     	;# 
  1859  041D                     	;# 
  1860  041E                     	;# 
  1861  041F                     	;# 
  1862  0493                     	;# 
  1863  0494                     	;# 
  1864  0495                     	;# 
  1865  0496                     	;# 
  1866  049A                     	;# 
  1867  049B                     	;# 
  1868  049C                     	;# 
  1869  049D                     	;# 
  1870  058C                     	;# 
  1871  058C                     	;# 
  1872  058D                     	;# 
  1873  058E                     	;# 
  1874  058E                     	;# 
  1875  058F                     	;# 
  1876  0590                     	;# 
  1877  0590                     	;# 
  1878  0591                     	;# 
  1879  0592                     	;# 
  1880  0592                     	;# 
  1881  0593                     	;# 
  1882  0594                     	;# 
  1883  0594                     	;# 
  1884  0595                     	;# 
  1885  0596                     	;# 
  1886  0596                     	;# 
  1887  0597                     	;# 
  1888  0598                     	;# 
  1889  0599                     	;# 
  1890  059A                     	;# 
  1891  059B                     	;# 
  1892  059B                     	;# 
  1893  059C                     	;# 
  1894  059D                     	;# 
  1895  060C                     	;# 
  1896  060C                     	;# 
  1897  060D                     	;# 
  1898  060E                     	;# 
  1899  060F                     	;# 
  1900  060F                     	;# 
  1901  0610                     	;# 
  1902  0611                     	;# 
  1903  0612                     	;# 
  1904  0613                     	;# 
  1905  0614                     	;# 
  1906  0617                     	;# 
  1907  0618                     	;# 
  1908  0619                     	;# 
  1909  061A                     	;# 
  1910  061B                     	;# 
  1911  061C                     	;# 
  1912  0691                     	;# 
  1913  0692                     	;# 
  1914  0693                     	;# 
  1915  0694                     	;# 
  1916  0695                     	;# 
  1917  0696                     	;# 
  1918  0697                     	;# 
  1919  0699                     	;# 
  1920  069A                     	;# 
  1921  0711                     	;# 
  1922  0712                     	;# 
  1923  0713                     	;# 
  1924  0714                     	;# 
  1925  0715                     	;# 
  1926  0718                     	;# 
  1927  0718                     	;# 
  1928  0719                     	;# 
  1929  071A                     	;# 
  1930  071A                     	;# 
  1931  071B                     	;# 
  1932  071C                     	;# 
  1933  071D                     	;# 
  1934  0791                     	;# 
  1935  0791                     	;# 
  1936  0792                     	;# 
  1937  0793                     	;# 
  1938  0793                     	;# 
  1939  0794                     	;# 
  1940  0795                     	;# 
  1941  0795                     	;# 
  1942  0796                     	;# 
  1943  0797                     	;# 
  1944  0797                     	;# 
  1945  0798                     	;# 
  1946  0799                     	;# 
  1947  079A                     	;# 
  1948  080C                     	;# 
  1949  080C                     	;# 
  1950  080D                     	;# 
  1951  080E                     	;# 
  1952  080E                     	;# 
  1953  080F                     	;# 
  1954  0810                     	;# 
  1955  0810                     	;# 
  1956  0811                     	;# 
  1957  0812                     	;# 
  1958  0812                     	;# 
  1959  0813                     	;# 
  1960  0814                     	;# 
  1961  0815                     	;# 
  1962  0816                     	;# 
  1963  0817                     	;# 
  1964  0818                     	;# 
  1965  0819                     	;# 
  1966  081A                     	;# 
  1967  081A                     	;# 
  1968  081B                     	;# 
  1969  081C                     	;# 
  1970  081C                     	;# 
  1971  081D                     	;# 
  1972  088C                     	;# 
  1973  088D                     	;# 
  1974  088E                     	;# 
  1975  088F                     	;# 
  1976  088F                     	;# 
  1977  0890                     	;# 
  1978  0891                     	;# 
  1979  0892                     	;# 
  1980  0893                     	;# 
  1981  0893                     	;# 
  1982  0894                     	;# 
  1983  0895                     	;# 
  1984  0896                     	;# 
  1985  0897                     	;# 
  1986  0897                     	;# 
  1987  0898                     	;# 
  1988  0899                     	;# 
  1989  0D8C                     	;# 
  1990  0D8C                     	;# 
  1991  0D8D                     	;# 
  1992  0D8E                     	;# 
  1993  0D8F                     	;# 
  1994  0D8F                     	;# 
  1995  0D90                     	;# 
  1996  0D91                     	;# 
  1997  0D92                     	;# 
  1998  0D92                     	;# 
  1999  0D93                     	;# 
  2000  0D94                     	;# 
  2001  0D95                     	;# 
  2002  0D95                     	;# 
  2003  0D96                     	;# 
  2004  0D97                     	;# 
  2005  0D98                     	;# 
  2006  0D99                     	;# 
  2007  0D9A                     	;# 
  2008  0D9B                     	;# 
  2009  0D9C                     	;# 
  2010  0D9D                     	;# 
  2011  0D9E                     	;# 
  2012  0D9E                     	;# 
  2013  0D9F                     	;# 
  2014  0DA0                     	;# 
  2015  0DA1                     	;# 
  2016  0DA1                     	;# 
  2017  0DA2                     	;# 
  2018  0DA3                     	;# 
  2019  0DA4                     	;# 
  2020  0DA4                     	;# 
  2021  0DA5                     	;# 
  2022  0DA6                     	;# 
  2023  0DA7                     	;# 
  2024  0DA7                     	;# 
  2025  0DA8                     	;# 
  2026  0DA9                     	;# 
  2027  0DAA                     	;# 
  2028  0DAB                     	;# 
  2029  0DAC                     	;# 
  2030  0DAD                     	;# 
  2031  0DAE                     	;# 
  2032  0DAF                     	;# 
  2033  0E0F                     	;# 
  2034  0E10                     	;# 
  2035  0E11                     	;# 
  2036  0E12                     	;# 
  2037  0E13                     	;# 
  2038  0E14                     	;# 
  2039  0E15                     	;# 
  2040  0E16                     	;# 
  2041  0E17                     	;# 
  2042  0E18                     	;# 
  2043  0E19                     	;# 
  2044  0E1A                     	;# 
  2045  0E1B                     	;# 
  2046  0E1C                     	;# 
  2047  0E1D                     	;# 
  2048  0E1E                     	;# 
  2049  0E1F                     	;# 
  2050  0E20                     	;# 
  2051  0E21                     	;# 
  2052  0E22                     	;# 
  2053  0E23                     	;# 
  2054  0E24                     	;# 
  2055  0E25                     	;# 
  2056  0E26                     	;# 
  2057  0E27                     	;# 
  2058  0E28                     	;# 
  2059  0E29                     	;# 
  2060  0E2A                     	;# 
  2061  0E2B                     	;# 
  2062  0E2C                     	;# 
  2063  0E2D                     	;# 
  2064  0E2E                     	;# 
  2065  0E90                     	;# 
  2066  0E91                     	;# 
  2067  0E92                     	;# 
  2068  0E94                     	;# 
  2069  0E95                     	;# 
  2070  0E9C                     	;# 
  2071  0E9D                     	;# 
  2072  0E9E                     	;# 
  2073  0E9F                     	;# 
  2074  0EA0                     	;# 
  2075  0EA1                     	;# 
  2076  0EA2                     	;# 
  2077  0EA3                     	;# 
  2078  0EA4                     	;# 
  2079  0EA5                     	;# 
  2080  0EA6                     	;# 
  2081  0EA7                     	;# 
  2082  0F0F                     	;# 
  2083  0F10                     	;# 
  2084  0F11                     	;# 
  2085  0F12                     	;# 
  2086  0F13                     	;# 
  2087  0F14                     	;# 
  2088  0F15                     	;# 
  2089  0F16                     	;# 
  2090  0F17                     	;# 
  2091  0F18                     	;# 
  2092  0F19                     	;# 
  2093  0F1A                     	;# 
  2094  0F1B                     	;# 
  2095  0F1C                     	;# 
  2096  0F1D                     	;# 
  2097  0F1E                     	;# 
  2098  0F1F                     	;# 
  2099  0F20                     	;# 
  2100  0F21                     	;# 
  2101  0F22                     	;# 
  2102  0F23                     	;# 
  2103  0FE4                     	;# 
  2104  0FE5                     	;# 
  2105  0FE6                     	;# 
  2106  0FE7                     	;# 
  2107  0FE8                     	;# 
  2108  0FE9                     	;# 
  2109  0FEA                     	;# 
  2110  0FEB                     	;# 
  2111  0FED                     	;# 
  2112  0FEE                     	;# 
  2113  0FEF                     	;# 
  2114  0000                     	;# 
  2115  0001                     	;# 
  2116  0002                     	;# 
  2117  0003                     	;# 
  2118  0004                     	;# 
  2119  0005                     	;# 
  2120  0006                     	;# 
  2121  0007                     	;# 
  2122  0008                     	;# 
  2123  0009                     	;# 
  2124  000A                     	;# 
  2125  000B                     	;# 
  2126  000C                     	;# 
  2127  000D                     	;# 
  2128  000E                     	;# 
  2129  0010                     	;# 
  2130  0011                     	;# 
  2131  0012                     	;# 
  2132  0013                     	;# 
  2133  0014                     	;# 
  2134  0015                     	;# 
  2135  0016                     	;# 
  2136  0016                     	;# 
  2137  0017                     	;# 
  2138  0018                     	;# 
  2139  0019                     	;# 
  2140  001A                     	;# 
  2141  001A                     	;# 
  2142  001B                     	;# 
  2143  001B                     	;# 
  2144  001C                     	;# 
  2145  001D                     	;# 
  2146  001E                     	;# 
  2147  001F                     	;# 
  2148  008C                     	;# 
  2149  008D                     	;# 
  2150  008E                     	;# 
  2151  0090                     	;# 
  2152  0091                     	;# 
  2153  0092                     	;# 
  2154  0093                     	;# 
  2155  0094                     	;# 
  2156  0095                     	;# 
  2157  0096                     	;# 
  2158  0098                     	;# 
  2159  0099                     	;# 
  2160  009A                     	;# 
  2161  009B                     	;# 
  2162  009B                     	;# 
  2163  009C                     	;# 
  2164  009D                     	;# 
  2165  009E                     	;# 
  2166  009F                     	;# 
  2167  010C                     	;# 
  2168  010D                     	;# 
  2169  010E                     	;# 
  2170  0111                     	;# 
  2171  0112                     	;# 
  2172  0113                     	;# 
  2173  0114                     	;# 
  2174  0115                     	;# 
  2175  0116                     	;# 
  2176  0117                     	;# 
  2177  0118                     	;# 
  2178  0119                     	;# 
  2179  011C                     	;# 
  2180  018C                     	;# 
  2181  018D                     	;# 
  2182  018E                     	;# 
  2183  0191                     	;# 
  2184  0191                     	;# 
  2185  0192                     	;# 
  2186  0193                     	;# 
  2187  0193                     	;# 
  2188  0194                     	;# 
  2189  0195                     	;# 
  2190  0196                     	;# 
  2191  0199                     	;# 
  2192  0199                     	;# 
  2193  0199                     	;# 
  2194  019A                     	;# 
  2195  019A                     	;# 
  2196  019A                     	;# 
  2197  019B                     	;# 
  2198  019B                     	;# 
  2199  019B                     	;# 
  2200  019B                     	;# 
  2201  019B                     	;# 
  2202  019C                     	;# 
  2203  019C                     	;# 
  2204  019C                     	;# 
  2205  019D                     	;# 
  2206  019D                     	;# 
  2207  019D                     	;# 
  2208  019E                     	;# 
  2209  019E                     	;# 
  2210  019E                     	;# 
  2211  019F                     	;# 
  2212  019F                     	;# 
  2213  019F                     	;# 
  2214  019F                     	;# 
  2215  019F                     	;# 
  2216  020C                     	;# 
  2217  020D                     	;# 
  2218  020E                     	;# 
  2219  0211                     	;# 
  2220  0211                     	;# 
  2221  0212                     	;# 
  2222  0212                     	;# 
  2223  0213                     	;# 
  2224  0213                     	;# 
  2225  0214                     	;# 
  2226  0214                     	;# 
  2227  0215                     	;# 
  2228  0215                     	;# 
  2229  0215                     	;# 
  2230  0215                     	;# 
  2231  0216                     	;# 
  2232  0216                     	;# 
  2233  0217                     	;# 
  2234  0217                     	;# 
  2235  028C                     	;# 
  2236  028D                     	;# 
  2237  028E                     	;# 
  2238  0291                     	;# 
  2239  0291                     	;# 
  2240  0292                     	;# 
  2241  0293                     	;# 
  2242  0294                     	;# 
  2243  0298                     	;# 
  2244  0298                     	;# 
  2245  0299                     	;# 
  2246  029A                     	;# 
  2247  029B                     	;# 
  2248  029E                     	;# 
  2249  030C                     	;# 
  2250  030D                     	;# 
  2251  030E                     	;# 
  2252  038C                     	;# 
  2253  038D                     	;# 
  2254  038E                     	;# 
  2255  0391                     	;# 
  2256  0392                     	;# 
  2257  0393                     	;# 
  2258  0394                     	;# 
  2259  0395                     	;# 
  2260  0396                     	;# 
  2261  0397                     	;# 
  2262  0398                     	;# 
  2263  0399                     	;# 
  2264  040E                     	;# 
  2265  0413                     	;# 
  2266  0413                     	;# 
  2267  0414                     	;# 
  2268  0414                     	;# 
  2269  0415                     	;# 
  2270  0416                     	;# 
  2271  0417                     	;# 
  2272  0418                     	;# 
  2273  041A                     	;# 
  2274  041A                     	;# 
  2275  041B                     	;# 
  2276  041B                     	;# 
  2277  041C                     	;# 
  2278  041D                     	;# 
  2279  041E                     	;# 
  2280  041F                     	;# 
  2281  0493                     	;# 
  2282  0494                     	;# 
  2283  0495                     	;# 
  2284  0496                     	;# 
  2285  049A                     	;# 
  2286  049B                     	;# 
  2287  049C                     	;# 
  2288  049D                     	;# 
  2289  058C                     	;# 
  2290  058C                     	;# 
  2291  058D                     	;# 
  2292  058E                     	;# 
  2293  058E                     	;# 
  2294  058F                     	;# 
  2295  0590                     	;# 
  2296  0590                     	;# 
  2297  0591                     	;# 
  2298  0592                     	;# 
  2299  0592                     	;# 
  2300  0593                     	;# 
  2301  0594                     	;# 
  2302  0594                     	;# 
  2303  0595                     	;# 
  2304  0596                     	;# 
  2305  0596                     	;# 
  2306  0597                     	;# 
  2307  0598                     	;# 
  2308  0599                     	;# 
  2309  059A                     	;# 
  2310  059B                     	;# 
  2311  059B                     	;# 
  2312  059C                     	;# 
  2313  059D                     	;# 
  2314  060C                     	;# 
  2315  060C                     	;# 
  2316  060D                     	;# 
  2317  060E                     	;# 
  2318  060F                     	;# 
  2319  060F                     	;# 
  2320  0610                     	;# 
  2321  0611                     	;# 
  2322  0612                     	;# 
  2323  0613                     	;# 
  2324  0614                     	;# 
  2325  0617                     	;# 
  2326  0618                     	;# 
  2327  0619                     	;# 
  2328  061A                     	;# 
  2329  061B                     	;# 
  2330  061C                     	;# 
  2331  0691                     	;# 
  2332  0692                     	;# 
  2333  0693                     	;# 
  2334  0694                     	;# 
  2335  0695                     	;# 
  2336  0696                     	;# 
  2337  0697                     	;# 
  2338  0699                     	;# 
  2339  069A                     	;# 
  2340  0711                     	;# 
  2341  0712                     	;# 
  2342  0713                     	;# 
  2343  0714                     	;# 
  2344  0715                     	;# 
  2345  0718                     	;# 
  2346  0718                     	;# 
  2347  0719                     	;# 
  2348  071A                     	;# 
  2349  071A                     	;# 
  2350  071B                     	;# 
  2351  071C                     	;# 
  2352  071D                     	;# 
  2353  0791                     	;# 
  2354  0791                     	;# 
  2355  0792                     	;# 
  2356  0793                     	;# 
  2357  0793                     	;# 
  2358  0794                     	;# 
  2359  0795                     	;# 
  2360  0795                     	;# 
  2361  0796                     	;# 
  2362  0797                     	;# 
  2363  0797                     	;# 
  2364  0798                     	;# 
  2365  0799                     	;# 
  2366  079A                     	;# 
  2367  080C                     	;# 
  2368  080C                     	;# 
  2369  080D                     	;# 
  2370  080E                     	;# 
  2371  080E                     	;# 
  2372  080F                     	;# 
  2373  0810                     	;# 
  2374  0810                     	;# 
  2375  0811                     	;# 
  2376  0812                     	;# 
  2377  0812                     	;# 
  2378  0813                     	;# 
  2379  0814                     	;# 
  2380  0815                     	;# 
  2381  0816                     	;# 
  2382  0817                     	;# 
  2383  0818                     	;# 
  2384  0819                     	;# 
  2385  081A                     	;# 
  2386  081A                     	;# 
  2387  081B                     	;# 
  2388  081C                     	;# 
  2389  081C                     	;# 
  2390  081D                     	;# 
  2391  088C                     	;# 
  2392  088D                     	;# 
  2393  088E                     	;# 
  2394  088F                     	;# 
  2395  088F                     	;# 
  2396  0890                     	;# 
  2397  0891                     	;# 
  2398  0892                     	;# 
  2399  0893                     	;# 
  2400  0893                     	;# 
  2401  0894                     	;# 
  2402  0895                     	;# 
  2403  0896                     	;# 
  2404  0897                     	;# 
  2405  0897                     	;# 
  2406  0898                     	;# 
  2407  0899                     	;# 
  2408  0D8C                     	;# 
  2409  0D8C                     	;# 
  2410  0D8D                     	;# 
  2411  0D8E                     	;# 
  2412  0D8F                     	;# 
  2413  0D8F                     	;# 
  2414  0D90                     	;# 
  2415  0D91                     	;# 
  2416  0D92                     	;# 
  2417  0D92                     	;# 
  2418  0D93                     	;# 
  2419  0D94                     	;# 
  2420  0D95                     	;# 
  2421  0D95                     	;# 
  2422  0D96                     	;# 
  2423  0D97                     	;# 
  2424  0D98                     	;# 
  2425  0D99                     	;# 
  2426  0D9A                     	;# 
  2427  0D9B                     	;# 
  2428  0D9C                     	;# 
  2429  0D9D                     	;# 
  2430  0D9E                     	;# 
  2431  0D9E                     	;# 
  2432  0D9F                     	;# 
  2433  0DA0                     	;# 
  2434  0DA1                     	;# 
  2435  0DA1                     	;# 
  2436  0DA2                     	;# 
  2437  0DA3                     	;# 
  2438  0DA4                     	;# 
  2439  0DA4                     	;# 
  2440  0DA5                     	;# 
  2441  0DA6                     	;# 
  2442  0DA7                     	;# 
  2443  0DA7                     	;# 
  2444  0DA8                     	;# 
  2445  0DA9                     	;# 
  2446  0DAA                     	;# 
  2447  0DAB                     	;# 
  2448  0DAC                     	;# 
  2449  0DAD                     	;# 
  2450  0DAE                     	;# 
  2451  0DAF                     	;# 
  2452  0E0F                     	;# 
  2453  0E10                     	;# 
  2454  0E11                     	;# 
  2455  0E12                     	;# 
  2456  0E13                     	;# 
  2457  0E14                     	;# 
  2458  0E15                     	;# 
  2459  0E16                     	;# 
  2460  0E17                     	;# 
  2461  0E18                     	;# 
  2462  0E19                     	;# 
  2463  0E1A                     	;# 
  2464  0E1B                     	;# 
  2465  0E1C                     	;# 
  2466  0E1D                     	;# 
  2467  0E1E                     	;# 
  2468  0E1F                     	;# 
  2469  0E20                     	;# 
  2470  0E21                     	;# 
  2471  0E22                     	;# 
  2472  0E23                     	;# 
  2473  0E24                     	;# 
  2474  0E25                     	;# 
  2475  0E26                     	;# 
  2476  0E27                     	;# 
  2477  0E28                     	;# 
  2478  0E29                     	;# 
  2479  0E2A                     	;# 
  2480  0E2B                     	;# 
  2481  0E2C                     	;# 
  2482  0E2D                     	;# 
  2483  0E2E                     	;# 
  2484  0E90                     	;# 
  2485  0E91                     	;# 
  2486  0E92                     	;# 
  2487  0E94                     	;# 
  2488  0E95                     	;# 
  2489  0E9C                     	;# 
  2490  0E9D                     	;# 
  2491  0E9E                     	;# 
  2492  0E9F                     	;# 
  2493  0EA0                     	;# 
  2494  0EA1                     	;# 
  2495  0EA2                     	;# 
  2496  0EA3                     	;# 
  2497  0EA4                     	;# 
  2498  0EA5                     	;# 
  2499  0EA6                     	;# 
  2500  0EA7                     	;# 
  2501  0F0F                     	;# 
  2502  0F10                     	;# 
  2503  0F11                     	;# 
  2504  0F12                     	;# 
  2505  0F13                     	;# 
  2506  0F14                     	;# 
  2507  0F15                     	;# 
  2508  0F16                     	;# 
  2509  0F17                     	;# 
  2510  0F18                     	;# 
  2511  0F19                     	;# 
  2512  0F1A                     	;# 
  2513  0F1B                     	;# 
  2514  0F1C                     	;# 
  2515  0F1D                     	;# 
  2516  0F1E                     	;# 
  2517  0F1F                     	;# 
  2518  0F20                     	;# 
  2519  0F21                     	;# 
  2520  0F22                     	;# 
  2521  0F23                     	;# 
  2522  0FE4                     	;# 
  2523  0FE5                     	;# 
  2524  0FE6                     	;# 
  2525  0FE7                     	;# 
  2526  0FE8                     	;# 
  2527  0FE9                     	;# 
  2528  0FEA                     	;# 
  2529  0FEB                     	;# 
  2530  0FED                     	;# 
  2531  0FEE                     	;# 
  2532  0FEF                     	;# 
  2533                           
  2534                           	psect	stringtext
  2535  0800                     __pstringtext:	
  2536  0800                     _USIDHIGH:	
  2537  0800  3401               	retlw	1
  2538  0801  343A               	retlw	58
  2539  0802  34E0               	retlw	224
  2540  0803  3402               	retlw	2
  2541  0804  3401               	retlw	1
  2542  0805  343A               	retlw	58
  2543  0806  3409               	retlw	9
  2544  0807  3482               	retlw	130
  2545  0808  3401               	retlw	1
  2546  0809  343A               	retlw	58
  2547  080A  3408               	retlw	8
  2548  080B  34FE               	retlw	254
  2549  080C  3401               	retlw	1
  2550  080D  343A               	retlw	58
  2551  080E  3409               	retlw	9
  2552  080F  3400               	retlw	0
  2553  0810  3401               	retlw	1
  2554  0811  343A               	retlw	58
  2555  0812  3408               	retlw	8
  2556  0813  3480               	retlw	128
  2557  0814  3401               	retlw	1
  2558  0815  343A               	retlw	58
  2559  0816  3408               	retlw	8
  2560  0817  3440               	retlw	64
  2561  0818  3401               	retlw	1
  2562  0819  343A               	retlw	58
  2563  081A  3408               	retlw	8
  2564  081B  3420               	retlw	32
  2565  081C  3401               	retlw	1
  2566  081D  343A               	retlw	58
  2567  081E  3408               	retlw	8
  2568  081F  3410               	retlw	16
  2569  0820  3401               	retlw	1
  2570  0821  343A               	retlw	58
  2571  0822  3408               	retlw	8
  2572  0823  3408               	retlw	8
  2573  0824  3401               	retlw	1
  2574  0825  343A               	retlw	58
  2575  0826  3408               	retlw	8
  2576  0827  3404               	retlw	4
  2577  0828  3401               	retlw	1
  2578  0829  343A               	retlw	58
  2579  082A  3408               	retlw	8
  2580  082B  3402               	retlw	2
  2581  082C                     __end_of_USIDHIGH:	
  2582  082C                     _USIDHIGHREV:	
  2583  082C  3480               	retlw	128
  2584  082D  345C               	retlw	92
  2585  082E  3407               	retlw	7
  2586  082F  3440               	retlw	64
  2587  0830  3480               	retlw	128
  2588  0831  345C               	retlw	92
  2589  0832  3490               	retlw	144
  2590  0833  3441               	retlw	65
  2591  0834  3480               	retlw	128
  2592  0835  345C               	retlw	92
  2593  0836  3410               	retlw	16
  2594  0837  347F               	retlw	127
  2595  0838  3480               	retlw	128
  2596  0839  345C               	retlw	92
  2597  083A  3490               	retlw	144
  2598  083B  3400               	retlw	0
  2599  083C  3480               	retlw	128
  2600  083D  345C               	retlw	92
  2601  083E  3410               	retlw	16
  2602  083F  3401               	retlw	1
  2603  0840  3480               	retlw	128
  2604  0841  345C               	retlw	92
  2605  0842  3410               	retlw	16
  2606  0843  3402               	retlw	2
  2607  0844  3480               	retlw	128
  2608  0845  345C               	retlw	92
  2609  0846  3410               	retlw	16
  2610  0847  3404               	retlw	4
  2611  0848  3480               	retlw	128
  2612  0849  345C               	retlw	92
  2613  084A  3410               	retlw	16
  2614  084B  3408               	retlw	8
  2615  084C  3480               	retlw	128
  2616  084D  345C               	retlw	92
  2617  084E  3410               	retlw	16
  2618  084F  3410               	retlw	16
  2619  0850  3480               	retlw	128
  2620  0851  345C               	retlw	92
  2621  0852  3410               	retlw	16
  2622  0853  3420               	retlw	32
  2623  0854  3480               	retlw	128
  2624  0855  345C               	retlw	92
  2625  0856  3410               	retlw	16
  2626  0857  3440               	retlw	64
  2627  0858                     __end_of_USIDHIGHREV:	
  2628  0858                     _USIDLOW:	
  2629  0858  3401               	retlw	1
  2630  0859  3432               	retlw	50
  2631  085A  34E4               	retlw	228
  2632  085B  3402               	retlw	2
  2633  085C  3401               	retlw	1
  2634  085D  3432               	retlw	50
  2635  085E  340D               	retlw	13
  2636  085F  3482               	retlw	130
  2637  0860  3401               	retlw	1
  2638  0861  3432               	retlw	50
  2639  0862  340C               	retlw	12
  2640  0863  34FE               	retlw	254
  2641  0864  3401               	retlw	1
  2642  0865  3432               	retlw	50
  2643  0866  340D               	retlw	13
  2644  0867  3400               	retlw	0
  2645  0868  3401               	retlw	1
  2646  0869  3432               	retlw	50
  2647  086A  340C               	retlw	12
  2648  086B  3480               	retlw	128
  2649  086C  3401               	retlw	1
  2650  086D  3432               	retlw	50
  2651  086E  340C               	retlw	12
  2652  086F  3440               	retlw	64
  2653  0870  3401               	retlw	1
  2654  0871  3432               	retlw	50
  2655  0872  340C               	retlw	12
  2656  0873  3420               	retlw	32
  2657  0874  3401               	retlw	1
  2658  0875  3432               	retlw	50
  2659  0876  340C               	retlw	12
  2660  0877  3410               	retlw	16
  2661  0878  3401               	retlw	1
  2662  0879  3432               	retlw	50
  2663  087A  340C               	retlw	12
  2664  087B  3408               	retlw	8
  2665  087C  3401               	retlw	1
  2666  087D  3432               	retlw	50
  2667  087E  340C               	retlw	12
  2668  087F  3404               	retlw	4
  2669  0880  3401               	retlw	1
  2670  0881  3432               	retlw	50
  2671  0882  340C               	retlw	12
  2672  0883  3402               	retlw	2
  2673  0884                     __end_of_USIDLOW:	
  2674  0884                     _USIDLOWREV:	
  2675  0884  3480               	retlw	128
  2676  0885  344C               	retlw	76
  2677  0886  3427               	retlw	39
  2678  0887  3440               	retlw	64
  2679  0888  3480               	retlw	128
  2680  0889  344C               	retlw	76
  2681  088A  34B0               	retlw	176
  2682  088B  3441               	retlw	65
  2683  088C  3480               	retlw	128
  2684  088D  344C               	retlw	76
  2685  088E  3430               	retlw	48
  2686  088F  347F               	retlw	127
  2687  0890  3480               	retlw	128
  2688  0891  344C               	retlw	76
  2689  0892  34B0               	retlw	176
  2690  0893  3400               	retlw	0
  2691  0894  3480               	retlw	128
  2692  0895  344C               	retlw	76
  2693  0896  3430               	retlw	48
  2694  0897  3401               	retlw	1
  2695  0898  3480               	retlw	128
  2696  0899  344C               	retlw	76
  2697  089A  3430               	retlw	48
  2698  089B  3402               	retlw	2
  2699  089C  3480               	retlw	128
  2700  089D  344C               	retlw	76
  2701  089E  3430               	retlw	48
  2702  089F  3404               	retlw	4
  2703  08A0  3480               	retlw	128
  2704  08A1  344C               	retlw	76
  2705  08A2  3430               	retlw	48
  2706  08A3  3408               	retlw	8
  2707  08A4  3480               	retlw	128
  2708  08A5  344C               	retlw	76
  2709  08A6  3430               	retlw	48
  2710  08A7  3410               	retlw	16
  2711  08A8  3480               	retlw	128
  2712  08A9  344C               	retlw	76
  2713  08AA  3430               	retlw	48
  2714  08AB  3420               	retlw	32
  2715  08AC  3480               	retlw	128
  2716  08AD  344C               	retlw	76
  2717  08AE  3430               	retlw	48
  2718  08AF  3440               	retlw	64
  2719  08B0                     __end_of_USIDLOWREV:	
  2720  08B0                     _DacOutput:	
  2721  08B0  342B               	retlw	43
  2722  08B1  3448               	retlw	72
  2723  08B2  3456               	retlw	86
  2724  08B3  3464               	retlw	100
  2725  08B4                     __end_of_DacOutput:	
  2726  000E                     _PORTC	set	14
  2727  005F                     _GIE	set	95
  2728  0095                     _OPTION_REGbits	set	149
  2729  0099                     _OSCCON	set	153
  2730  009A                     _OSCSTAT	set	154
  2731  0098                     _OSCTUNE	set	152
  2732  008C                     _TRISA	set	140
  2733  008D                     _TRISB	set	141
  2734  008E                     _TRISC	set	142
  2735  0118                     _DAC1CON0	set	280
  2736  0119                     _DAC1CON1	set	281
  2737  0117                     _FVRCON	set	279
  2738  0117                     _FVRCONbits	set	279
  2739  010C                     _LATA	set	268
  2740  010D                     _LATB	set	269
  2741  010E                     _LATC	set	270
  2742  0861                     _LATA1	set	2145
  2743  0862                     _LATA2	set	2146
  2744  0864                     _LATA4	set	2148
  2745  086C                     _LATB4	set	2156
  2746  018C                     _ANSELA	set	396
  2747  018D                     _ANSELB	set	397
  2748  018E                     _ANSELC	set	398
  2749  0212                     _SSP1ADD	set	530
  2750  0215                     _SSP1CON1	set	533
  2751  0215                     _SSP1CON1bits	set	533
  2752  0214                     _SSP1STAT	set	532
  2753  0214                     _SSP1STATbits	set	532
  2754  0211                     _SSPBUF	set	529
  2755  020D                     _WPUB	set	525
  2756  020E                     _WPUC	set	526
  2757  0E0F                     _PPSLOCK	set	3599
  2758  0E0F                     _PPSLOCKbits	set	3599
  2759  0E20                     _SSPCLKPPS	set	3616
  2760  0E21                     _SSPDATPPS	set	3617
  2761  0E9E                     _RB6PPS	set	3742
  2762  0E9F                     _RB7PPS	set	3743
  2763                           
  2764                           ; #config settings
  2765  0000                     
  2766                           	psect	cinit
  2767  07F9                     start_initialization:	
  2768  07F9                     __initialization:	
  2769                           
  2770                           ; Clear objects allocated to COMMON
  2771  07F9  01F8               	clrf	__pbssCOMMON& (0+127)
  2772  07FA  01F9               	clrf	(__pbssCOMMON+1)& (0+127)
  2773  07FB  01FA               	clrf	(__pbssCOMMON+2)& (0+127)
  2774  07FC  01FB               	clrf	(__pbssCOMMON+3)& (0+127)
  2775  07FD                     end_of_initialization:	
  2776                           ;End of C runtime variable initialization code
  2777                           
  2778  07FD                     __end_of__initialization:	
  2779  07FD  0020               	movlb	0
  2780  07FE  3186  2E9A         	ljmp	_main	;jump to C main() function
  2781                           
  2782                           	psect	bssCOMMON
  2783  0078                     __pbssCOMMON:	
  2784  0078                     _Byte1:	
  2785  0078                     	ds	1
  2786  0079                     _Byte2:	
  2787  0079                     	ds	1
  2788  007A                     _Byte3:	
  2789  007A                     	ds	1
  2790  007B                     _readDummy:	
  2791  007B                     	ds	1
  2792                           
  2793                           	psect	cstackCOMMON
  2794  0070                     __pcstackCOMMON:	
  2795  0070                     ?_OSCILLATOR_Initialize:	
  2796  0070                     ??_OSCILLATOR_Initialize:	
  2797                           ; 0 bytes @ 0x0
  2798                           
  2799  0070                     ?_SPI_Initialize:	
  2800                           ; 0 bytes @ 0x0
  2801                           
  2802  0070                     ??_SPI_Initialize:	
  2803                           ; 0 bytes @ 0x0
  2804                           
  2805  0070                     ??_SPI_Exchange8bit:	
  2806                           ; 0 bytes @ 0x0
  2807                           
  2808  0070                     ?_FVR_Initialize:	
  2809                           ; 0 bytes @ 0x0
  2810                           
  2811  0070                     ??_FVR_Initialize:	
  2812                           ; 0 bytes @ 0x0
  2813                           
  2814  0070                     ?_DAC1_Initialize:	
  2815                           ; 0 bytes @ 0x0
  2816                           
  2817  0070                     ??_DAC1_Initialize:	
  2818                           ; 0 bytes @ 0x0
  2819                           
  2820  0070                     ?_DAC1_SetOutput:	
  2821                           ; 0 bytes @ 0x0
  2822                           
  2823  0070                     ??_DAC1_SetOutput:	
  2824                           ; 0 bytes @ 0x0
  2825                           
  2826  0070                     ?_PIN_MANAGER_Initialize:	
  2827                           ; 0 bytes @ 0x0
  2828                           
  2829  0070                     ??_PIN_MANAGER_Initialize:	
  2830                           ; 0 bytes @ 0x0
  2831                           
  2832  0070                     ?_SYSTEM_Initialize:	
  2833                           ; 0 bytes @ 0x0
  2834                           
  2835  0070                     ?_MIPIDATA:	
  2836                           ; 0 bytes @ 0x0
  2837                           
  2838  0070                     ?_main:	
  2839                           ; 0 bytes @ 0x0
  2840                           
  2841  0070                     ?_SPI_Exchange8bit:	
  2842                           ; 0 bytes @ 0x0
  2843                           
  2844  0070                     SPI_Exchange8bit@data:	
  2845                           ; 1 bytes @ 0x0
  2846                           
  2847  0070                     DAC1_SetOutput@inputData:	
  2848                           ; 1 bytes @ 0x0
  2849                           
  2850  0070                     PIN_MANAGER_Initialize@state:	
  2851                           ; 1 bytes @ 0x0
  2852                           
  2853                           
  2854                           ; 1 bytes @ 0x0
  2855  0070                     	ds	1
  2856  0071                     ??_SYSTEM_Initialize:	
  2857  0071                     ??_MIPIDATA:	
  2858                           ; 0 bytes @ 0x1
  2859                           
  2860                           
  2861                           ; 0 bytes @ 0x1
  2862  0071                     	ds	3
  2863  0074                     MIPIDATA@i:	
  2864                           
  2865                           ; 1 bytes @ 0x4
  2866  0074                     	ds	1
  2867  0075                     MIPIDATA@j:	
  2868                           
  2869                           ; 1 bytes @ 0x5
  2870  0075                     	ds	1
  2871  0076                     MIPIDATA@j_243:	
  2872                           
  2873                           ; 1 bytes @ 0x6
  2874  0076                     	ds	1
  2875  0077                     ??_main:	
  2876                           
  2877                           ; 0 bytes @ 0x7
  2878  0077                     	ds	1
  2879                           
  2880                           	psect	maintext
  2881  069A                     __pmaintext:	
  2882 ;;
  2883 ;;Main: autosize = 0, tempsize = 1, incstack = 0, save=0
  2884 ;;
  2885 ;; *************** function _main *****************
  2886 ;; Defined at:
  2887 ;;		line 108 in file "main.c"
  2888 ;; Parameters:    Size  Location     Type
  2889 ;;		None
  2890 ;; Auto vars:     Size  Location     Type
  2891 ;;		None
  2892 ;; Return value:  Size  Location     Type
  2893 ;;		None               void
  2894 ;; Registers used:
  2895 ;;		wreg, fsr0l, fsr0h, status,2, status,0, pclath, cstack
  2896 ;; Tracked objects:
  2897 ;;		On entry : B1F/0
  2898 ;;		On exit  : 0/0
  2899 ;;		Unchanged: 0/0
  2900 ;; Data sizes:     COMMON   BANK0   BANK1   BANK2   BANK3   BANK4   BANK5   BANK6
  2901 ;;      Params:         0       0       0       0       0       0       0       0
  2902 ;;      Locals:         0       0       0       0       0       0       0       0
  2903 ;;      Temps:          1       0       0       0       0       0       0       0
  2904 ;;      Totals:         1       0       0       0       0       0       0       0
  2905 ;;Total ram usage:        1 bytes
  2906 ;; Hardware stack levels required when called:    2
  2907 ;; This function calls:
  2908 ;;		_DAC1_Initialize
  2909 ;;		_DAC1_SetOutput
  2910 ;;		_MIPIDATA
  2911 ;;		_PIN_MANAGER_Initialize
  2912 ;;		_SPI_Initialize
  2913 ;;		_SYSTEM_Initialize
  2914 ;; This function is called by:
  2915 ;;		Startup code after reset
  2916 ;; This function uses a non-reentrant model
  2917 ;;
  2918                           
  2919                           
  2920                           ;psect for function _main
  2921  069A                     _main:	
  2922                           
  2923                           ;main.c: 110: SYSTEM_Initialize();
  2924                           
  2925                           ;incstack = 0
  2926                           ; Regs used in _main: [wreg-fsr0h+status,2+status,0+pclath+cstack]
  2927  069A  3186  2617  3186   	fcall	_SYSTEM_Initialize
  2928                           
  2929                           ;main.c: 111: DAC1_Initialize();
  2930  069D  3185  25FD  3186   	fcall	_DAC1_Initialize
  2931                           
  2932                           ;main.c: 112: PIN_MANAGER_Initialize();
  2933  06A0  3186  265E  3186   	fcall	_PIN_MANAGER_Initialize
  2934                           
  2935                           ;main.c: 113: SPI_Initialize();
  2936  06A3  3186  2608  3186   	fcall	_SPI_Initialize
  2937                           
  2938                           ;main.c: 134: DAC1_SetOutput(0);
  2939  06A6  3000               	movlw	0
  2940  06A7  3185  25F8  3186   	fcall	_DAC1_SetOutput
  2941                           
  2942                           ;main.c: 135: do { LATA1 = 0; } while(0);
  2943  06AA  0022               	movlb	2	; select bank2
  2944  06AB  108C               	bcf	12,1	;volatile
  2945                           
  2946                           ;main.c: 136: do { LATA4 = 0; } while(0);
  2947  06AC  120C               	bcf	12,4	;volatile
  2948                           
  2949                           ;main.c: 137: do { LATA2 = 0; } while(0);
  2950  06AD  110C               	bcf	12,2	;volatile
  2951                           
  2952                           ;main.c: 138: do { LATB4 = 0; } while(0);
  2953  06AE  120D               	bcf	13,4	;volatile
  2954  06AF                     l810:	
  2955                           ;main.c: 140: while ((PORTC & 0xC0) != 0xC0){}
  2956                           
  2957                           ;main.c: 139: while (1) {
  2958                           
  2959  06AF  30C0               	movlw	192
  2960  06B0  0020               	movlb	0	; select bank0
  2961  06B1  050E               	andwf	14,w	;volatile
  2962  06B2  00F7               	movwf	??_main
  2963  06B3  30C0               	movlw	192
  2964  06B4  0677               	xorwf	??_main,w
  2965  06B5  1D03               	btfss	3,2
  2966  06B6  2EAF               	goto	l810
  2967                           
  2968                           ;main.c: 141: Byte1 = PORTC;
  2969  06B7  080E               	movf	14,w	;volatile
  2970  06B8  00F7               	movwf	??_main
  2971  06B9  0877               	movf	??_main,w
  2972  06BA  00F8               	movwf	_Byte1
  2973  06BB                     l814:	
  2974                           ;main.c: 142: while ((PORTC & 0xC0) != 0x40){}
  2975                           
  2976  06BB  30C0               	movlw	192
  2977  06BC  050E               	andwf	14,w	;volatile
  2978  06BD  00F7               	movwf	??_main
  2979  06BE  3040               	movlw	64
  2980  06BF  0677               	xorwf	??_main,w
  2981  06C0  1D03               	btfss	3,2
  2982  06C1  2EBB               	goto	l814
  2983                           
  2984                           ;main.c: 143: Byte2 = PORTC & 0x3F;
  2985  06C2  080E               	movf	14,w	;volatile
  2986  06C3  393F               	andlw	63
  2987  06C4  00F7               	movwf	??_main
  2988  06C5  0877               	movf	??_main,w
  2989  06C6  00F9               	movwf	_Byte2
  2990  06C7                     l818:	
  2991                           ;main.c: 144: while ((PORTC & 0xC0) != 0x80){}
  2992                           
  2993  06C7  30C0               	movlw	192
  2994  06C8  050E               	andwf	14,w	;volatile
  2995  06C9  00F7               	movwf	??_main
  2996  06CA  3080               	movlw	128
  2997  06CB  0677               	xorwf	??_main,w
  2998  06CC  1D03               	btfss	3,2
  2999  06CD  2EC7               	goto	l818
  3000                           
  3001                           ;main.c: 145: Byte3 = PORTC & 0x3F;
  3002  06CE  080E               	movf	14,w	;volatile
  3003  06CF  393F               	andlw	63
  3004  06D0  00F7               	movwf	??_main
  3005  06D1  0877               	movf	??_main,w
  3006  06D2  00FA               	movwf	_Byte3
  3007                           
  3008                           ;main.c: 146: if (((Byte1 & 0x10) == 0x10) && ((Byte1 & 0x0C) != 0x00))
  3009  06D3  1E78               	btfss	_Byte1,4
  3010  06D4  2EE3               	goto	l828
  3011  06D5  0878               	movf	_Byte1,w
  3012  06D6  390C               	andlw	12
  3013  06D7  1903               	btfsc	3,2
  3014  06D8  2EE3               	goto	l828
  3015                           
  3016                           ;main.c: 147: DAC1_SetOutput(DacOutput[(Byte1 & 0x03)]);
  3017  06D9  0878               	movf	_Byte1,w
  3018  06DA  3903               	andlw	3
  3019  06DB  3EB0               	addlw	low (_DacOutput| (0+32768))
  3020  06DC  0084               	movwf	4
  3021  06DD  3088               	movlw	high (_DacOutput| (0+32768))
  3022  06DE  1803               	skipnc
  3023  06DF  3E01               	addlw	1
  3024  06E0  0085               	movwf	5
  3025  06E1  0800               	movf	0,w	;code access
  3026  06E2  2EE4               	goto	L1
  3027  06E3                     l828:	
  3028                           
  3029                           ;main.c: 148: else
  3030                           ;main.c: 149: DAC1_SetOutput(0);
  3031  06E3  3000               	movlw	0
  3032  06E4                     L1:	
  3033  06E4  3185  25F8  3186   	fcall	_DAC1_SetOutput
  3034                           
  3035                           ;main.c: 151: if ((Byte1 & 0x3C) == 0x20){
  3036  06E7  303C               	movlw	60
  3037  06E8  0578               	andwf	_Byte1,w
  3038  06E9  00F7               	movwf	??_main
  3039  06EA  3020               	movlw	32
  3040  06EB  0677               	xorwf	??_main,w
  3041  06EC  1903               	btfsc	3,2
  3042  06ED  2F31               	goto	l213
  3043                           
  3044                           ;main.c: 154: }else{ if (((Byte1 & 0x30) != 0x00) && ((Byte1 & 0x0C) != 0x00)){
  3045                           
  3046                           ;main.c: 153: do { LATB4 = 1; } while(0);
  3047                           
  3048                           ;main.c: 152: do { LATA2 = 0; } while(0);
  3049  06EE  0878               	movf	_Byte1,w
  3050  06EF  3930               	andlw	48
  3051  06F0  1903               	btfsc	3,2
  3052  06F1  2F35               	goto	l218
  3053  06F2  0878               	movf	_Byte1,w
  3054  06F3  390C               	andlw	12
  3055  06F4  1903               	btfsc	3,2
  3056  06F5  2F35               	goto	l218
  3057                           
  3058                           ;main.c: 155: if ((Byte2 == 5) || (Byte2 == 8) || (Byte2 == 12) || (Byte2 == 13) || (Byt
      +                          e2 == 20) || (Byte2 == 26) || (Byte2 == 29) || (Byte3 == 5) || (Byte3 == 8) || (Byte3 ==
      +                           12) || (Byte3 == 13) || (Byte3 == 20) || (Byte3 == 26) || (Byte3 == 29)){
  3059  06F6  3005               	movlw	5
  3060  06F7  0679               	xorwf	_Byte2,w
  3061  06F8  1903               	btfsc	3,2
  3062  06F9  2F2E               	goto	l208
  3063  06FA  3008               	movlw	8
  3064  06FB  0679               	xorwf	_Byte2,w
  3065  06FC  1903               	btfsc	3,2
  3066  06FD  2F2E               	goto	l208
  3067  06FE  300C               	movlw	12
  3068  06FF  0679               	xorwf	_Byte2,w
  3069  0700  1903               	btfsc	3,2
  3070  0701  2F2E               	goto	l208
  3071  0702  300D               	movlw	13
  3072  0703  0679               	xorwf	_Byte2,w
  3073  0704  1903               	btfsc	3,2
  3074  0705  2F2E               	goto	l208
  3075  0706  3014               	movlw	20
  3076  0707  0679               	xorwf	_Byte2,w
  3077  0708  1903               	btfsc	3,2
  3078  0709  2F2E               	goto	l208
  3079  070A  301A               	movlw	26
  3080  070B  0679               	xorwf	_Byte2,w
  3081  070C  1903               	btfsc	3,2
  3082  070D  2F2E               	goto	l208
  3083  070E  301D               	movlw	29
  3084  070F  0679               	xorwf	_Byte2,w
  3085  0710  1903               	btfsc	3,2
  3086  0711  2F2E               	goto	l208
  3087  0712  3005               	movlw	5
  3088  0713  067A               	xorwf	_Byte3,w
  3089  0714  1903               	btfsc	3,2
  3090  0715  2F2E               	goto	l208
  3091  0716  3008               	movlw	8
  3092  0717  067A               	xorwf	_Byte3,w
  3093  0718  1903               	btfsc	3,2
  3094  0719  2F2E               	goto	l208
  3095  071A  300C               	movlw	12
  3096  071B  067A               	xorwf	_Byte3,w
  3097  071C  1903               	btfsc	3,2
  3098  071D  2F2E               	goto	l208
  3099  071E  300D               	movlw	13
  3100  071F  067A               	xorwf	_Byte3,w
  3101  0720  1903               	btfsc	3,2
  3102  0721  2F2E               	goto	l208
  3103  0722  3014               	movlw	20
  3104  0723  067A               	xorwf	_Byte3,w
  3105  0724  1903               	btfsc	3,2
  3106  0725  2F2E               	goto	l208
  3107  0726  301A               	movlw	26
  3108  0727  067A               	xorwf	_Byte3,w
  3109  0728  1903               	btfsc	3,2
  3110  0729  2F2E               	goto	l208
  3111  072A  301D               	movlw	29
  3112  072B  067A               	xorwf	_Byte3,w
  3113  072C  1D03               	btfss	3,2
  3114  072D  2F31               	goto	l213
  3115  072E                     l208:	
  3116                           ;main.c: 156: do { LATA2 = 1; } while(0);
  3117                           
  3118  072E  0022               	movlb	2	; select bank2
  3119  072F  150C               	bsf	12,2	;volatile
  3120                           
  3121                           ;main.c: 157: do { LATB4 = 1; } while(0);
  3122  0730  2F33               	goto	l215
  3123  0731                     l213:	
  3124                           ;main.c: 159: do { LATA2 = 0; } while(0);
  3125                           
  3126                           ;main.c: 158: }else{
  3127                           
  3128  0731  0022               	movlb	2	; select bank2
  3129  0732  110C               	bcf	12,2	;volatile
  3130  0733                     l215:	
  3131                           ;main.c: 160: do { LATB4 = 1; } while(0);
  3132                           
  3133  0733  160D               	bsf	13,4	;volatile
  3134                           
  3135                           ;main.c: 161: }
  3136                           ;main.c: 162: }else{
  3137  0734  2F38               	goto	l864
  3138  0735                     l218:	
  3139                           ;main.c: 163: do { LATA2 = 0; } while(0);
  3140                           
  3141  0735  0022               	movlb	2	; select bank2
  3142  0736  110C               	bcf	12,2	;volatile
  3143                           
  3144                           ;main.c: 164: do { LATB4 = 0; } while(0);
  3145  0737  120D               	bcf	13,4	;volatile
  3146  0738                     l864:	
  3147                           
  3148                           ;main.c: 165: }
  3149                           ;main.c: 166: }
  3150                           ;main.c: 168: if (Byte2 == 3 && Byte3 == 7){
  3151  0738  3003               	movlw	3
  3152  0739  0679               	xorwf	_Byte2,w
  3153  073A  1D03               	btfss	3,2
  3154  073B  2F43               	goto	l868
  3155  073C  3007               	movlw	7
  3156  073D  067A               	xorwf	_Byte3,w
  3157  073E  1D03               	btfss	3,2
  3158  073F  2F43               	goto	l868
  3159                           
  3160                           ;main.c: 169: do { LATA1 = 0; } while(0);
  3161  0740  108C               	bcf	12,1	;volatile
  3162                           
  3163                           ;main.c: 170: do { LATA4 = 1; } while(0);
  3164  0741  160C               	bsf	12,4	;volatile
  3165                           
  3166                           ;main.c: 171: }
  3167  0742  2F79               	goto	l896
  3168  0743                     l868:	
  3169                           
  3170                           ;main.c: 172: else{ if ((Byte2 == 7 && Byte3 == 0) || (Byte2 == 30 && Byte3 == 0) || (By
      +                          te2 == 41 && Byte3 == 0) || (Byte2 == 5 && Byte3 == 30) || (Byte2 == 7 && Byte3 == 20) |
      +                          | (Byte2 == 12 && Byte3 == 30) || (Byte2 == 41 && Byte3 == 41)){
  3171  0743  3007               	movlw	7
  3172  0744  0679               	xorwf	_Byte2,w
  3173  0745  1903               	btfsc	3,2
  3174  0746  087A               	movf	_Byte3,w
  3175  0747  1903               	btfsc	3,2
  3176  0748  2F75               	goto	l243
  3177  0749  301E               	movlw	30
  3178  074A  0679               	xorwf	_Byte2,w
  3179  074B  1903               	btfsc	3,2
  3180  074C  087A               	movf	_Byte3,w
  3181  074D  1903               	btfsc	3,2
  3182  074E  2F75               	goto	l243
  3183  074F  3029               	movlw	41
  3184  0750  0679               	xorwf	_Byte2,w
  3185  0751  1903               	btfsc	3,2
  3186  0752  087A               	movf	_Byte3,w
  3187  0753  1903               	btfsc	3,2
  3188  0754  2F75               	goto	l243
  3189  0755  3005               	movlw	5
  3190  0756  0679               	xorwf	_Byte2,w
  3191  0757  1D03               	btfss	3,2
  3192  0758  2F5D               	goto	l884
  3193  0759  301E               	movlw	30
  3194  075A  067A               	xorwf	_Byte3,w
  3195  075B  1903               	btfsc	3,2
  3196  075C  2F75               	goto	l243
  3197  075D                     l884:	
  3198  075D  3007               	movlw	7
  3199  075E  0679               	xorwf	_Byte2,w
  3200  075F  1D03               	btfss	3,2
  3201  0760  2F65               	goto	l888
  3202  0761  3014               	movlw	20
  3203  0762  067A               	xorwf	_Byte3,w
  3204  0763  1903               	btfsc	3,2
  3205  0764  2F75               	goto	l243
  3206  0765                     l888:	
  3207  0765  300C               	movlw	12
  3208  0766  0679               	xorwf	_Byte2,w
  3209  0767  1D03               	btfss	3,2
  3210  0768  2F6D               	goto	l892
  3211  0769  301E               	movlw	30
  3212  076A  067A               	xorwf	_Byte3,w
  3213  076B  1903               	btfsc	3,2
  3214  076C  2F75               	goto	l243
  3215  076D                     l892:	
  3216  076D  3029               	movlw	41
  3217  076E  0679               	xorwf	_Byte2,w
  3218  076F  1D03               	btfss	3,2
  3219  0770  2F77               	goto	l248
  3220  0771  3029               	movlw	41
  3221  0772  067A               	xorwf	_Byte3,w
  3222  0773  1D03               	btfss	3,2
  3223  0774  2F77               	goto	l248
  3224  0775                     l243:	
  3225                           ;main.c: 173: do { LATA1 = 1; } while(0);
  3226                           
  3227  0775  148C               	bsf	12,1	;volatile
  3228  0776  2F78               	goto	l250
  3229  0777                     l248:	
  3230                           ;main.c: 176: else{
  3231                           ;main.c: 177: do { LATA1 = 0; } while(0);
  3232                           
  3233                           ;main.c: 175: }
  3234                           
  3235                           ;main.c: 174: do { LATA4 = 0; } while(0);
  3236                           
  3237  0777  108C               	bcf	12,1	;volatile
  3238  0778                     l250:	
  3239                           ;main.c: 178: do { LATA4 = 0; } while(0);
  3240                           
  3241  0778  120C               	bcf	12,4	;volatile
  3242  0779                     l896:	
  3243                           
  3244                           ;main.c: 179: }
  3245                           ;main.c: 180: }
  3246                           ;main.c: 195: if ((Byte2 == 5) || (Byte3 == 5)){
  3247  0779  3005               	movlw	5
  3248  077A  0679               	xorwf	_Byte2,w
  3249  077B  1903               	btfsc	3,2
  3250  077C  2F81               	goto	l900
  3251  077D  3005               	movlw	5
  3252  077E  067A               	xorwf	_Byte3,w
  3253  077F  1D03               	btfss	3,2
  3254  0780  2F8A               	goto	l902
  3255  0781                     l900:	
  3256                           
  3257                           ;main.c: 196: MIPIDATA (4);
  3258  0781  3004               	movlw	4
  3259  0782  3186  2626  3186   	fcall	_MIPIDATA
  3260                           
  3261                           ;main.c: 197: MIPIDATA (4);
  3262  0785  3004               	movlw	4
  3263  0786  3186  2626  3186   	fcall	_MIPIDATA
  3264                           
  3265                           ;main.c: 198: }else{ if ((Byte2 == 8) || (Byte3 == 8)){
  3266  0789  2EAF               	goto	l810
  3267  078A                     l902:	
  3268  078A  3008               	movlw	8
  3269  078B  0679               	xorwf	_Byte2,w
  3270  078C  1903               	btfsc	3,2
  3271  078D  2F92               	goto	l906
  3272  078E  3008               	movlw	8
  3273  078F  067A               	xorwf	_Byte3,w
  3274  0790  1D03               	btfss	3,2
  3275  0791  2F9B               	goto	l908
  3276  0792                     l906:	
  3277                           
  3278                           ;main.c: 199: MIPIDATA (8);
  3279  0792  3008               	movlw	8
  3280  0793  3186  2626  3186   	fcall	_MIPIDATA
  3281                           
  3282                           ;main.c: 200: MIPIDATA (8);
  3283  0796  3008               	movlw	8
  3284  0797  3186  2626  3186   	fcall	_MIPIDATA
  3285                           
  3286                           ;main.c: 201: }else{ if ((Byte2 == 12) || (Byte3 == 12)){
  3287  079A  2EAF               	goto	l810
  3288  079B                     l908:	
  3289  079B  300C               	movlw	12
  3290  079C  0679               	xorwf	_Byte2,w
  3291  079D  1903               	btfsc	3,2
  3292  079E  2FA3               	goto	l912
  3293  079F  300C               	movlw	12
  3294  07A0  067A               	xorwf	_Byte3,w
  3295  07A1  1D03               	btfss	3,2
  3296  07A2  2FAC               	goto	l914
  3297  07A3                     l912:	
  3298                           
  3299                           ;main.c: 202: MIPIDATA (12);
  3300  07A3  300C               	movlw	12
  3301  07A4  3186  2626  3186   	fcall	_MIPIDATA
  3302                           
  3303                           ;main.c: 203: MIPIDATA (12);
  3304  07A7  300C               	movlw	12
  3305  07A8  3186  2626  3186   	fcall	_MIPIDATA
  3306                           
  3307                           ;main.c: 204: }else{ if ((Byte2 == 13) || (Byte3 == 13)){
  3308  07AB  2EAF               	goto	l810
  3309  07AC                     l914:	
  3310  07AC  300D               	movlw	13
  3311  07AD  0679               	xorwf	_Byte2,w
  3312  07AE  1903               	btfsc	3,2
  3313  07AF  2FB4               	goto	l918
  3314  07B0  300D               	movlw	13
  3315  07B1  067A               	xorwf	_Byte3,w
  3316  07B2  1D03               	btfss	3,2
  3317  07B3  2FBD               	goto	l920
  3318  07B4                     l918:	
  3319                           
  3320                           ;main.c: 205: MIPIDATA (16);
  3321  07B4  3010               	movlw	16
  3322  07B5  3186  2626  3186   	fcall	_MIPIDATA
  3323                           
  3324                           ;main.c: 206: MIPIDATA (16);
  3325  07B8  3010               	movlw	16
  3326  07B9  3186  2626  3186   	fcall	_MIPIDATA
  3327                           
  3328                           ;main.c: 207: }else{ if ((Byte2 == 20) || (Byte3 == 20)){
  3329  07BC  2EAF               	goto	l810
  3330  07BD                     l920:	
  3331  07BD  3014               	movlw	20
  3332  07BE  0679               	xorwf	_Byte2,w
  3333  07BF  1903               	btfsc	3,2
  3334  07C0  2FC5               	goto	l924
  3335  07C1  3014               	movlw	20
  3336  07C2  067A               	xorwf	_Byte3,w
  3337  07C3  1D03               	btfss	3,2
  3338  07C4  2FCE               	goto	l926
  3339  07C5                     l924:	
  3340                           
  3341                           ;main.c: 208: MIPIDATA (20);
  3342  07C5  3014               	movlw	20
  3343  07C6  3186  2626  3186   	fcall	_MIPIDATA
  3344                           
  3345                           ;main.c: 209: MIPIDATA (20);
  3346  07C9  3014               	movlw	20
  3347  07CA  3186  2626  3186   	fcall	_MIPIDATA
  3348                           
  3349                           ;main.c: 210: }else{ if ((Byte2 == 26) || (Byte3 == 26)){
  3350  07CD  2EAF               	goto	l810
  3351  07CE                     l926:	
  3352  07CE  301A               	movlw	26
  3353  07CF  0679               	xorwf	_Byte2,w
  3354  07D0  1903               	btfsc	3,2
  3355  07D1  2FD6               	goto	l930
  3356  07D2  301A               	movlw	26
  3357  07D3  067A               	xorwf	_Byte3,w
  3358  07D4  1D03               	btfss	3,2
  3359  07D5  2FDF               	goto	l932
  3360  07D6                     l930:	
  3361                           
  3362                           ;main.c: 211: MIPIDATA (24);
  3363  07D6  3018               	movlw	24
  3364  07D7  3186  2626  3186   	fcall	_MIPIDATA
  3365                           
  3366                           ;main.c: 212: MIPIDATA (24);
  3367  07DA  3018               	movlw	24
  3368  07DB  3186  2626  3186   	fcall	_MIPIDATA
  3369                           
  3370                           ;main.c: 213: }else{ if ((Byte2 == 29) || (Byte3 == 29)){
  3371  07DE  2EAF               	goto	l810
  3372  07DF                     l932:	
  3373  07DF  301D               	movlw	29
  3374  07E0  0679               	xorwf	_Byte2,w
  3375  07E1  1903               	btfsc	3,2
  3376  07E2  2FE7               	goto	l936
  3377  07E3  301D               	movlw	29
  3378  07E4  067A               	xorwf	_Byte3,w
  3379  07E5  1D03               	btfss	3,2
  3380  07E6  2FF0               	goto	l938
  3381  07E7                     l936:	
  3382                           
  3383                           ;main.c: 214: MIPIDATA (28);
  3384  07E7  301C               	movlw	28
  3385  07E8  3186  2626  3186   	fcall	_MIPIDATA
  3386                           
  3387                           ;main.c: 215: MIPIDATA (28);
  3388  07EB  301C               	movlw	28
  3389  07EC  3186  2626  3186   	fcall	_MIPIDATA
  3390                           
  3391                           ;main.c: 216: }else{
  3392  07EF  2EAF               	goto	l810
  3393  07F0                     l938:	
  3394                           
  3395                           ;main.c: 217: MIPIDATA (40);
  3396  07F0  3028               	movlw	40
  3397  07F1  3186  2626  3186   	fcall	_MIPIDATA
  3398                           
  3399                           ;main.c: 218: MIPIDATA (40);
  3400  07F4  3028               	movlw	40
  3401  07F5  3186  2626  3186   	fcall	_MIPIDATA
  3402  07F8  2EAF               	goto	l810
  3403  07F9                     __end_of_main:	
  3404                           
  3405                           	psect	text1
  3406  0617                     __ptext1:	
  3407 ;; *************** function _SYSTEM_Initialize *****************
  3408 ;; Defined at:
  3409 ;;		line 75 in file "mcc_generated_files/mcc.c"
  3410 ;; Parameters:    Size  Location     Type
  3411 ;;		None
  3412 ;; Auto vars:     Size  Location     Type
  3413 ;;		None
  3414 ;; Return value:  Size  Location     Type
  3415 ;;		None               void
  3416 ;; Registers used:
  3417 ;;		wreg, status,2, status,0, pclath, cstack
  3418 ;; Tracked objects:
  3419 ;;		On entry : 0/0
  3420 ;;		On exit  : 0/0
  3421 ;;		Unchanged: 0/0
  3422 ;; Data sizes:     COMMON   BANK0   BANK1   BANK2   BANK3   BANK4   BANK5   BANK6
  3423 ;;      Params:         0       0       0       0       0       0       0       0
  3424 ;;      Locals:         0       0       0       0       0       0       0       0
  3425 ;;      Temps:          0       0       0       0       0       0       0       0
  3426 ;;      Totals:         0       0       0       0       0       0       0       0
  3427 ;;Total ram usage:        0 bytes
  3428 ;; Hardware stack levels used:    1
  3429 ;; Hardware stack levels required when called:    1
  3430 ;; This function calls:
  3431 ;;		_DAC1_Initialize
  3432 ;;		_FVR_Initialize
  3433 ;;		_OSCILLATOR_Initialize
  3434 ;;		_PIN_MANAGER_Initialize
  3435 ;;		_SPI_Initialize
  3436 ;; This function is called by:
  3437 ;;		_main
  3438 ;; This function uses a non-reentrant model
  3439 ;;
  3440                           
  3441                           
  3442                           ;psect for function _SYSTEM_Initialize
  3443  0617                     _SYSTEM_Initialize:	
  3444                           
  3445                           ;mcc.c: 76: OSCILLATOR_Initialize();
  3446                           
  3447                           ;incstack = 0
  3448                           ; Regs used in _SYSTEM_Initialize: [wreg+status,2+status,0+pclath+cstack]
  3449  0617  3186  2602  3186   	fcall	_OSCILLATOR_Initialize
  3450                           
  3451                           ;mcc.c: 77: PIN_MANAGER_Initialize();
  3452  061A  3186  265E  3186   	fcall	_PIN_MANAGER_Initialize
  3453                           
  3454                           ;mcc.c: 78: DAC1_Initialize();
  3455  061D  3185  25FD  3186   	fcall	_DAC1_Initialize
  3456                           
  3457                           ;mcc.c: 79: FVR_Initialize();
  3458  0620  3185  25F4  3186   	fcall	_FVR_Initialize
  3459                           
  3460                           ;mcc.c: 80: SPI_Initialize();
  3461  0623  3186  2608         	fcall	_SPI_Initialize
  3462  0625  0008               	return
  3463  0626                     __end_of_SYSTEM_Initialize:	
  3464                           
  3465                           	psect	text2
  3466  0608                     __ptext2:	
  3467 ;; *************** function _SPI_Initialize *****************
  3468 ;; Defined at:
  3469 ;;		line 64 in file "mcc_generated_files/spi.c"
  3470 ;; Parameters:    Size  Location     Type
  3471 ;;		None
  3472 ;; Auto vars:     Size  Location     Type
  3473 ;;		None
  3474 ;; Return value:  Size  Location     Type
  3475 ;;		None               void
  3476 ;; Registers used:
  3477 ;;		wreg, status,2
  3478 ;; Tracked objects:
  3479 ;;		On entry : 0/0
  3480 ;;		On exit  : 0/0
  3481 ;;		Unchanged: 0/0
  3482 ;; Data sizes:     COMMON   BANK0   BANK1   BANK2   BANK3   BANK4   BANK5   BANK6
  3483 ;;      Params:         0       0       0       0       0       0       0       0
  3484 ;;      Locals:         0       0       0       0       0       0       0       0
  3485 ;;      Temps:          0       0       0       0       0       0       0       0
  3486 ;;      Totals:         0       0       0       0       0       0       0       0
  3487 ;;Total ram usage:        0 bytes
  3488 ;; Hardware stack levels used:    1
  3489 ;; This function calls:
  3490 ;;		Nothing
  3491 ;; This function is called by:
  3492 ;;		_SYSTEM_Initialize
  3493 ;;		_main
  3494 ;; This function uses a non-reentrant model
  3495 ;;
  3496                           
  3497                           
  3498                           ;psect for function _SPI_Initialize
  3499  0608                     _SPI_Initialize:	
  3500                           
  3501                           ;spi.c: 68: SSP1STAT = 0x00;
  3502                           
  3503                           ;incstack = 0
  3504                           ; Regs used in _SPI_Initialize: [wreg+status,2]
  3505  0608  0024               	movlb	4	; select bank4
  3506  0609  0194               	clrf	20	;volatile
  3507                           
  3508                           ;spi.c: 71: SSP1CON1 = 0x20;
  3509  060A  3020               	movlw	32
  3510  060B  0095               	movwf	21	;volatile
  3511                           
  3512                           ;spi.c: 74: SSP1ADD = 0x00;
  3513  060C  0192               	clrf	18	;volatile
  3514  060D  0008               	return
  3515  060E                     __end_of_SPI_Initialize:	
  3516                           
  3517                           	psect	text3
  3518  065E                     __ptext3:	
  3519 ;; *************** function _PIN_MANAGER_Initialize *****************
  3520 ;; Defined at:
  3521 ;;		line 51 in file "mcc_generated_files/pin_manager.c"
  3522 ;; Parameters:    Size  Location     Type
  3523 ;;		None
  3524 ;; Auto vars:     Size  Location     Type
  3525 ;;  state           1    0[COMMON] unsigned char 
  3526 ;; Return value:  Size  Location     Type
  3527 ;;		None               void
  3528 ;; Registers used:
  3529 ;;		wreg, status,2
  3530 ;; Tracked objects:
  3531 ;;		On entry : 0/0
  3532 ;;		On exit  : 0/0
  3533 ;;		Unchanged: 0/0
  3534 ;; Data sizes:     COMMON   BANK0   BANK1   BANK2   BANK3   BANK4   BANK5   BANK6
  3535 ;;      Params:         0       0       0       0       0       0       0       0
  3536 ;;      Locals:         1       0       0       0       0       0       0       0
  3537 ;;      Temps:          0       0       0       0       0       0       0       0
  3538 ;;      Totals:         1       0       0       0       0       0       0       0
  3539 ;;Total ram usage:        1 bytes
  3540 ;; Hardware stack levels used:    1
  3541 ;; This function calls:
  3542 ;;		Nothing
  3543 ;; This function is called by:
  3544 ;;		_SYSTEM_Initialize
  3545 ;;		_main
  3546 ;; This function uses a non-reentrant model
  3547 ;;
  3548                           
  3549                           
  3550                           ;psect for function _PIN_MANAGER_Initialize
  3551  065E                     _PIN_MANAGER_Initialize:	
  3552                           
  3553                           ;pin_manager.c: 52: LATA = 0x00;
  3554                           
  3555                           ;incstack = 0
  3556                           ; Regs used in _PIN_MANAGER_Initialize: [wreg+status,2]
  3557  065E  0022               	movlb	2	; select bank2
  3558  065F  018C               	clrf	12	;volatile
  3559                           
  3560                           ;pin_manager.c: 53: TRISA = 0x28;
  3561  0660  3028               	movlw	40
  3562  0661  0021               	movlb	1	; select bank1
  3563  0662  008C               	movwf	12	;volatile
  3564                           
  3565                           ;pin_manager.c: 54: ANSELA = 0x01;
  3566  0663  3001               	movlw	1
  3567  0664  0023               	movlb	3	; select bank3
  3568  0665  008C               	movwf	12	;volatile
  3569                           
  3570                           ;pin_manager.c: 56: LATB = 0x00;
  3571  0666  0022               	movlb	2	; select bank2
  3572  0667  018D               	clrf	13	;volatile
  3573                           
  3574                           ;pin_manager.c: 57: TRISB = 0x20;
  3575  0668  3020               	movlw	32
  3576  0669  0021               	movlb	1	; select bank1
  3577  066A  008D               	movwf	13	;volatile
  3578                           
  3579                           ;pin_manager.c: 58: ANSELB = 0x00;
  3580  066B  0023               	movlb	3	; select bank3
  3581  066C  018D               	clrf	13	;volatile
  3582                           
  3583                           ;pin_manager.c: 59: WPUB = 0x00;
  3584  066D  0024               	movlb	4	; select bank4
  3585  066E  018D               	clrf	13	;volatile
  3586                           
  3587                           ;pin_manager.c: 61: LATC = 0x00;
  3588  066F  0022               	movlb	2	; select bank2
  3589  0670  018E               	clrf	14	;volatile
  3590                           
  3591                           ;pin_manager.c: 62: TRISC = 0xFF;
  3592  0671  30FF               	movlw	255
  3593  0672  0021               	movlb	1	; select bank1
  3594  0673  008E               	movwf	14	;volatile
  3595                           
  3596                           ;pin_manager.c: 63: ANSELC = 0x00;
  3597  0674  0023               	movlb	3	; select bank3
  3598  0675  018E               	clrf	14	;volatile
  3599                           
  3600                           ;pin_manager.c: 64: WPUC = 0x00;
  3601  0676  0024               	movlb	4	; select bank4
  3602  0677  018E               	clrf	14	;volatile
  3603                           
  3604                           ;pin_manager.c: 66: OPTION_REGbits.nWPUEN = 0x01;
  3605  0678  0021               	movlb	1	; select bank1
  3606  0679  1795               	bsf	21,7	;volatile
  3607                           
  3608                           ;pin_manager.c: 69: bool state = GIE;
  3609  067A  3000               	movlw	0
  3610  067B  1B8B               	btfsc	11,7	;volatile
  3611  067C  3001               	movlw	1
  3612  067D  00F0               	movwf	PIN_MANAGER_Initialize@state
  3613                           
  3614                           ;pin_manager.c: 70: GIE = 0;
  3615  067E  138B               	bcf	11,7	;volatile
  3616                           
  3617                           ;pin_manager.c: 71: PPSLOCK = 0x55;
  3618  067F  3055               	movlw	85
  3619  0680  003C               	movlb	28	; select bank28
  3620  0681  008F               	movwf	15	;volatile
  3621                           
  3622                           ;pin_manager.c: 72: PPSLOCK = 0xAA;
  3623  0682  30AA               	movlw	170
  3624  0683  008F               	movwf	15	;volatile
  3625                           
  3626                           ;pin_manager.c: 73: PPSLOCKbits.PPSLOCKED = 0x00;
  3627  0684  100F               	bcf	15,0	;volatile
  3628                           
  3629                           ;pin_manager.c: 75: SSPDATPPS = 0x0D;
  3630  0685  300D               	movlw	13
  3631  0686  00A1               	movwf	33	;volatile
  3632                           
  3633                           ;pin_manager.c: 76: SSPCLKPPS = 0x0E;
  3634  0687  300E               	movlw	14
  3635  0688  00A0               	movwf	32	;volatile
  3636                           
  3637                           ;pin_manager.c: 77: RB6PPS = 0x10;
  3638  0689  3010               	movlw	16
  3639  068A  003D               	movlb	29	; select bank29
  3640  068B  009E               	movwf	30	;volatile
  3641                           
  3642                           ;pin_manager.c: 78: RB7PPS = 0x11;
  3643  068C  3011               	movlw	17
  3644  068D  009F               	movwf	31	;volatile
  3645                           
  3646                           ;pin_manager.c: 79: PPSLOCK = 0x55;
  3647  068E  3055               	movlw	85
  3648  068F  003C               	movlb	28	; select bank28
  3649  0690  008F               	movwf	15	;volatile
  3650                           
  3651                           ;pin_manager.c: 80: PPSLOCK = 0xAA;
  3652  0691  30AA               	movlw	170
  3653  0692  008F               	movwf	15	;volatile
  3654                           
  3655                           ;pin_manager.c: 81: PPSLOCKbits.PPSLOCKED = 0x01;
  3656  0693  140F               	bsf	15,0	;volatile
  3657                           
  3658                           ;pin_manager.c: 82: GIE = state;
  3659  0694  1C70               	btfss	PIN_MANAGER_Initialize@state,0
  3660  0695  2E98               	goto	u20
  3661  0696  178B               	bsf	11,7	;volatile
  3662  0697  0008               	return
  3663  0698                     u20:	
  3664  0698  138B               	bcf	11,7	;volatile
  3665  0699  0008               	return
  3666  069A                     __end_of_PIN_MANAGER_Initialize:	
  3667                           
  3668                           	psect	text4
  3669  0602                     __ptext4:	
  3670 ;; *************** function _OSCILLATOR_Initialize *****************
  3671 ;; Defined at:
  3672 ;;		line 83 in file "mcc_generated_files/mcc.c"
  3673 ;; Parameters:    Size  Location     Type
  3674 ;;		None
  3675 ;; Auto vars:     Size  Location     Type
  3676 ;;		None
  3677 ;; Return value:  Size  Location     Type
  3678 ;;		None               void
  3679 ;; Registers used:
  3680 ;;		wreg, status,2
  3681 ;; Tracked objects:
  3682 ;;		On entry : 0/0
  3683 ;;		On exit  : 0/0
  3684 ;;		Unchanged: 0/0
  3685 ;; Data sizes:     COMMON   BANK0   BANK1   BANK2   BANK3   BANK4   BANK5   BANK6
  3686 ;;      Params:         0       0       0       0       0       0       0       0
  3687 ;;      Locals:         0       0       0       0       0       0       0       0
  3688 ;;      Temps:          0       0       0       0       0       0       0       0
  3689 ;;      Totals:         0       0       0       0       0       0       0       0
  3690 ;;Total ram usage:        0 bytes
  3691 ;; Hardware stack levels used:    1
  3692 ;; This function calls:
  3693 ;;		Nothing
  3694 ;; This function is called by:
  3695 ;;		_SYSTEM_Initialize
  3696 ;; This function uses a non-reentrant model
  3697 ;;
  3698                           
  3699                           
  3700                           ;psect for function _OSCILLATOR_Initialize
  3701  0602                     _OSCILLATOR_Initialize:	
  3702                           
  3703                           ;mcc.c: 85: OSCCON = 0x6A;
  3704                           
  3705                           ;incstack = 0
  3706                           ; Regs used in _OSCILLATOR_Initialize: [wreg+status,2]
  3707  0602  306A               	movlw	106
  3708  0603  0021               	movlb	1	; select bank1
  3709  0604  0099               	movwf	25	;volatile
  3710                           
  3711                           ;mcc.c: 87: OSCSTAT = 0x00;
  3712  0605  019A               	clrf	26	;volatile
  3713                           
  3714                           ;mcc.c: 89: OSCTUNE = 0x00;
  3715  0606  0198               	clrf	24	;volatile
  3716  0607  0008               	return
  3717  0608                     __end_of_OSCILLATOR_Initialize:	
  3718                           
  3719                           	psect	text5
  3720  05F4                     __ptext5:	
  3721 ;; *************** function _FVR_Initialize *****************
  3722 ;; Defined at:
  3723 ;;		line 58 in file "mcc_generated_files/fvr.c"
  3724 ;; Parameters:    Size  Location     Type
  3725 ;;		None
  3726 ;; Auto vars:     Size  Location     Type
  3727 ;;		None
  3728 ;; Return value:  Size  Location     Type
  3729 ;;		None               void
  3730 ;; Registers used:
  3731 ;;		wreg
  3732 ;; Tracked objects:
  3733 ;;		On entry : 0/0
  3734 ;;		On exit  : 0/0
  3735 ;;		Unchanged: 0/0
  3736 ;; Data sizes:     COMMON   BANK0   BANK1   BANK2   BANK3   BANK4   BANK5   BANK6
  3737 ;;      Params:         0       0       0       0       0       0       0       0
  3738 ;;      Locals:         0       0       0       0       0       0       0       0
  3739 ;;      Temps:          0       0       0       0       0       0       0       0
  3740 ;;      Totals:         0       0       0       0       0       0       0       0
  3741 ;;Total ram usage:        0 bytes
  3742 ;; Hardware stack levels used:    1
  3743 ;; This function calls:
  3744 ;;		Nothing
  3745 ;; This function is called by:
  3746 ;;		_SYSTEM_Initialize
  3747 ;; This function uses a non-reentrant model
  3748 ;;
  3749                           
  3750                           
  3751                           ;psect for function _FVR_Initialize
  3752  05F4                     _FVR_Initialize:	
  3753                           
  3754                           ;fvr.c: 60: FVRCON = 0xA0;
  3755                           
  3756                           ;incstack = 0
  3757                           ; Regs used in _FVR_Initialize: [wreg]
  3758  05F4  30A0               	movlw	160
  3759  05F5  0022               	movlb	2	; select bank2
  3760  05F6  0097               	movwf	23	;volatile
  3761  05F7  0008               	return
  3762  05F8                     __end_of_FVR_Initialize:	
  3763                           
  3764                           	psect	text6
  3765  05FD                     __ptext6:	
  3766 ;; *************** function _DAC1_Initialize *****************
  3767 ;; Defined at:
  3768 ;;		line 58 in file "mcc_generated_files/dac1.c"
  3769 ;; Parameters:    Size  Location     Type
  3770 ;;		None
  3771 ;; Auto vars:     Size  Location     Type
  3772 ;;		None
  3773 ;; Return value:  Size  Location     Type
  3774 ;;		None               void
  3775 ;; Registers used:
  3776 ;;		wreg, status,2
  3777 ;; Tracked objects:
  3778 ;;		On entry : 0/0
  3779 ;;		On exit  : 0/0
  3780 ;;		Unchanged: 0/0
  3781 ;; Data sizes:     COMMON   BANK0   BANK1   BANK2   BANK3   BANK4   BANK5   BANK6
  3782 ;;      Params:         0       0       0       0       0       0       0       0
  3783 ;;      Locals:         0       0       0       0       0       0       0       0
  3784 ;;      Temps:          0       0       0       0       0       0       0       0
  3785 ;;      Totals:         0       0       0       0       0       0       0       0
  3786 ;;Total ram usage:        0 bytes
  3787 ;; Hardware stack levels used:    1
  3788 ;; This function calls:
  3789 ;;		Nothing
  3790 ;; This function is called by:
  3791 ;;		_SYSTEM_Initialize
  3792 ;;		_main
  3793 ;; This function uses a non-reentrant model
  3794 ;;
  3795                           
  3796                           
  3797                           ;psect for function _DAC1_Initialize
  3798  05FD                     _DAC1_Initialize:	
  3799                           
  3800                           ;dac1.c: 60: DAC1CON0 = 0xA0;
  3801                           
  3802                           ;incstack = 0
  3803                           ; Regs used in _DAC1_Initialize: [wreg+status,2]
  3804  05FD  30A0               	movlw	160
  3805  05FE  0022               	movlb	2	; select bank2
  3806  05FF  0098               	movwf	24	;volatile
  3807                           
  3808                           ;dac1.c: 62: DAC1CON1 = 0x00;
  3809  0600  0199               	clrf	25	;volatile
  3810  0601  0008               	return
  3811  0602                     __end_of_DAC1_Initialize:	
  3812                           
  3813                           	psect	text7
  3814  0626                     __ptext7:	
  3815 ;; *************** function _MIPIDATA *****************
  3816 ;; Defined at:
  3817 ;;		line 101 in file "main.c"
  3818 ;; Parameters:    Size  Location     Type
  3819 ;;  i               1    wreg     unsigned char 
  3820 ;; Auto vars:     Size  Location     Type
  3821 ;;  i               1    4[COMMON] unsigned char 
  3822 ;;  j               1    6[COMMON] unsigned char 
  3823 ;;  j               1    5[COMMON] unsigned char 
  3824 ;; Return value:  Size  Location     Type
  3825 ;;		None               void
  3826 ;; Registers used:
  3827 ;;		wreg, fsr0l, fsr0h, status,2, status,0, pclath, cstack
  3828 ;; Tracked objects:
  3829 ;;		On entry : 0/0
  3830 ;;		On exit  : 0/0
  3831 ;;		Unchanged: 0/0
  3832 ;; Data sizes:     COMMON   BANK0   BANK1   BANK2   BANK3   BANK4   BANK5   BANK6
  3833 ;;      Params:         0       0       0       0       0       0       0       0
  3834 ;;      Locals:         3       0       0       0       0       0       0       0
  3835 ;;      Temps:          3       0       0       0       0       0       0       0
  3836 ;;      Totals:         6       0       0       0       0       0       0       0
  3837 ;;Total ram usage:        6 bytes
  3838 ;; Hardware stack levels used:    1
  3839 ;; Hardware stack levels required when called:    1
  3840 ;; This function calls:
  3841 ;;		_SPI_Exchange8bit
  3842 ;; This function is called by:
  3843 ;;		_main
  3844 ;; This function uses a non-reentrant model
  3845 ;;
  3846                           
  3847                           
  3848                           ;psect for function _MIPIDATA
  3849  0626                     _MIPIDATA:	
  3850                           
  3851                           ;incstack = 0
  3852                           ; Regs used in _MIPIDATA: [wreg-fsr0h+status,2+status,0+pclath+cstack]
  3853                           ;MIPIDATA@i stored from wreg
  3854  0626  00F4               	movwf	MIPIDATA@i
  3855                           
  3856                           ;main.c: 102: for (uint8_t j=0; j<4; j++)
  3857  0627  01F5               	clrf	MIPIDATA@j
  3858  0628  3004               	movlw	4
  3859  0629  0275               	subwf	MIPIDATA@j,w
  3860  062A  1803               	btfsc	3,0
  3861  062B  2E42               	goto	l746
  3862  062C                     l740:	
  3863                           
  3864                           ;main.c: 103: readDummy = SPI_Exchange8bit(USIDLOW[j]);
  3865  062C  0875               	movf	MIPIDATA@j,w
  3866  062D  3E58               	addlw	low (_USIDLOW| (0+32768))
  3867  062E  0084               	movwf	4
  3868  062F  3088               	movlw	high (_USIDLOW| (0+32768))
  3869  0630  1803               	skipnc
  3870  0631  3E01               	addlw	1
  3871  0632  0085               	movwf	5
  3872  0633  0800               	movf	0,w	;code access
  3873  0634  3186  260E  3186   	fcall	_SPI_Exchange8bit
  3874  0637  00F1               	movwf	??_MIPIDATA
  3875  0638  0871               	movf	??_MIPIDATA,w
  3876  0639  00FB               	movwf	_readDummy
  3877  063A  3001               	movlw	1
  3878  063B  00F1               	movwf	??_MIPIDATA
  3879  063C  0871               	movf	??_MIPIDATA,w
  3880  063D  07F5               	addwf	MIPIDATA@j,f
  3881  063E  3004               	movlw	4
  3882  063F  0275               	subwf	MIPIDATA@j,w
  3883  0640  1C03               	skipc
  3884  0641  2E2C               	goto	l740
  3885  0642                     l746:	
  3886                           
  3887                           ;main.c: 104: for (uint8_t j=0; j<4; j++)
  3888  0642  01F6               	clrf	MIPIDATA@j_243
  3889  0643                     L2:	
  3890  0643  3004               	movlw	4
  3891  0644  0276               	subwf	MIPIDATA@j_243,w
  3892  0645  1803               	btfsc	3,0
  3893  0646  0008               	return
  3894                           
  3895                           ;main.c: 105: readDummy = SPI_Exchange8bit(USIDLOW[(i+j)]);
  3896  0647  0874               	movf	MIPIDATA@i,w
  3897  0648  0776               	addwf	MIPIDATA@j_243,w
  3898  0649  00F1               	movwf	??_MIPIDATA
  3899  064A  01F2               	clrf	??_MIPIDATA+1
  3900  064B  0DF2               	rlf	??_MIPIDATA+1,f
  3901  064C  3058               	movlw	low (_USIDLOW| (0+32768))
  3902  064D  0771               	addwf	??_MIPIDATA,w
  3903  064E  0084               	movwf	4
  3904  064F  3088               	movlw	high (_USIDLOW| (0+32768))
  3905  0650  3D72               	addwfc	??_MIPIDATA+1,w
  3906  0651  0085               	movwf	5
  3907  0652  0800               	movf	0,w	;code access
  3908  0653  3186  260E  3186   	fcall	_SPI_Exchange8bit
  3909  0656  00F3               	movwf	??_MIPIDATA+2
  3910  0657  0873               	movf	??_MIPIDATA+2,w
  3911  0658  00FB               	movwf	_readDummy
  3912  0659  3001               	movlw	1
  3913  065A  00F1               	movwf	??_MIPIDATA
  3914  065B  0871               	movf	??_MIPIDATA,w
  3915  065C  07F6               	addwf	MIPIDATA@j_243,f
  3916  065D  2E43               	goto	L2
  3917  065E                     __end_of_MIPIDATA:	
  3918                           
  3919                           	psect	text8
  3920  060E                     __ptext8:	
  3921 ;; *************** function _SPI_Exchange8bit *****************
  3922 ;; Defined at:
  3923 ;;		line 77 in file "mcc_generated_files/spi.c"
  3924 ;; Parameters:    Size  Location     Type
  3925 ;;  data            1    wreg     unsigned char 
  3926 ;; Auto vars:     Size  Location     Type
  3927 ;;  data            1    0[COMMON] unsigned char 
  3928 ;; Return value:  Size  Location     Type
  3929 ;;                  1    wreg      unsigned char 
  3930 ;; Registers used:
  3931 ;;		wreg
  3932 ;; Tracked objects:
  3933 ;;		On entry : 0/0
  3934 ;;		On exit  : 0/0
  3935 ;;		Unchanged: 0/0
  3936 ;; Data sizes:     COMMON   BANK0   BANK1   BANK2   BANK3   BANK4   BANK5   BANK6
  3937 ;;      Params:         0       0       0       0       0       0       0       0
  3938 ;;      Locals:         1       0       0       0       0       0       0       0
  3939 ;;      Temps:          0       0       0       0       0       0       0       0
  3940 ;;      Totals:         1       0       0       0       0       0       0       0
  3941 ;;Total ram usage:        1 bytes
  3942 ;; Hardware stack levels used:    1
  3943 ;; This function calls:
  3944 ;;		Nothing
  3945 ;; This function is called by:
  3946 ;;		_MIPIDATA
  3947 ;;		_SPI_Exchange8bitBuffer
  3948 ;; This function uses a non-reentrant model
  3949 ;;
  3950                           
  3951                           
  3952                           ;psect for function _SPI_Exchange8bit
  3953  060E                     _SPI_Exchange8bit:	
  3954                           
  3955                           ;incstack = 0
  3956                           ; Regs used in _SPI_Exchange8bit: [wreg]
  3957                           ;SPI_Exchange8bit@data stored from wreg
  3958  060E  00F0               	movwf	SPI_Exchange8bit@data
  3959                           
  3960                           ;spi.c: 79: SSP1CON1bits.WCOL = 0;
  3961  060F  0024               	movlb	4	; select bank4
  3962  0610  1395               	bcf	21,7	;volatile
  3963                           
  3964                           ;spi.c: 81: SSPBUF = data;
  3965  0611  0870               	movf	SPI_Exchange8bit@data,w
  3966  0612  0091               	movwf	17	;volatile
  3967  0613                     l18:	
  3968                           ;spi.c: 83: while (SSP1STATbits.BF == 0x0) {
  3969                           
  3970  0613  1C14               	btfss	20,0	;volatile
  3971  0614  2E13               	goto	l18
  3972                           
  3973                           ;spi.c: 84: }
  3974                           ;spi.c: 86: return (SSPBUF);
  3975  0615  0811               	movf	17,w	;volatile
  3976  0616  0008               	return
  3977  0617                     __end_of_SPI_Exchange8bit:	
  3978                           
  3979                           	psect	text9
  3980  05F8                     __ptext9:	
  3981 ;; *************** function _DAC1_SetOutput *****************
  3982 ;; Defined at:
  3983 ;;		line 65 in file "mcc_generated_files/dac1.c"
  3984 ;; Parameters:    Size  Location     Type
  3985 ;;  inputData       1    wreg     unsigned char 
  3986 ;; Auto vars:     Size  Location     Type
  3987 ;;  inputData       1    0[COMMON] unsigned char 
  3988 ;; Return value:  Size  Location     Type
  3989 ;;		None               void
  3990 ;; Registers used:
  3991 ;;		wreg
  3992 ;; Tracked objects:
  3993 ;;		On entry : 0/0
  3994 ;;		On exit  : 0/0
  3995 ;;		Unchanged: 0/0
  3996 ;; Data sizes:     COMMON   BANK0   BANK1   BANK2   BANK3   BANK4   BANK5   BANK6
  3997 ;;      Params:         0       0       0       0       0       0       0       0
  3998 ;;      Locals:         1       0       0       0       0       0       0       0
  3999 ;;      Temps:          0       0       0       0       0       0       0       0
  4000 ;;      Totals:         1       0       0       0       0       0       0       0
  4001 ;;Total ram usage:        1 bytes
  4002 ;; Hardware stack levels used:    1
  4003 ;; This function calls:
  4004 ;;		Nothing
  4005 ;; This function is called by:
  4006 ;;		_main
  4007 ;; This function uses a non-reentrant model
  4008 ;;
  4009                           
  4010                           
  4011                           ;psect for function _DAC1_SetOutput
  4012  05F8                     _DAC1_SetOutput:	
  4013                           
  4014                           ;incstack = 0
  4015                           ; Regs used in _DAC1_SetOutput: [wreg]
  4016                           ;DAC1_SetOutput@inputData stored from wreg
  4017  05F8  00F0               	movwf	DAC1_SetOutput@inputData
  4018                           
  4019                           ;dac1.c: 66: DAC1CON1 = inputData;
  4020  05F9  0870               	movf	DAC1_SetOutput@inputData,w
  4021  05FA  0022               	movlb	2	; select bank2
  4022  05FB  0099               	movwf	25	;volatile
  4023  05FC  0008               	return
  4024  05FD                     __end_of_DAC1_SetOutput:	
  4025  007E                     btemp	set	126	;btemp
  4026  007E                     wtemp	set	126
  4027  007E                     wtemp0	set	126
  4028  0080                     wtemp1	set	128
  4029  0082                     wtemp2	set	130
  4030  0084                     wtemp3	set	132
  4031  0086                     wtemp4	set	134
  4032  0088                     wtemp5	set	136
  4033  007F                     wtemp6	set	127
  4034  007E                     ttemp	set	126
  4035  007E                     ttemp0	set	126
  4036  0081                     ttemp1	set	129
  4037  0084                     ttemp2	set	132
  4038  0087                     ttemp3	set	135
  4039  007F                     ttemp4	set	127
  4040  007E                     ltemp	set	126
  4041  007E                     ltemp0	set	126
  4042  0082                     ltemp1	set	130
  4043  0086                     ltemp2	set	134
  4044  0080                     ltemp3	set	128


Data Sizes:
    Strings     0
    Constant    180
    Data        0
    BSS         4
    Persistent  0
    Stack       0

Auto Spaces:
    Space          Size  Autos    Used
    COMMON           14      8      12
    BANK0            80      0       0
    BANK1            80      0       0
    BANK2            80      0       0
    BANK3            80      0       0
    BANK4            80      0       0
    BANK5            80      0       0
    BANK6            16      0       0

Pointer List with Targets:

    None.

Critical Paths under _main in COMMON

    _main->_MIPIDATA
    _SYSTEM_Initialize->_PIN_MANAGER_Initialize
    _MIPIDATA->_SPI_Exchange8bit

Critical Paths under _main in BANK0

    None.

Critical Paths under _main in BANK1

    None.

Critical Paths under _main in BANK2

    None.

Critical Paths under _main in BANK3

    None.

Critical Paths under _main in BANK4

    None.

Critical Paths under _main in BANK5

    None.

Critical Paths under _main in BANK6

    None.

Call Graph Tables:

 ---------------------------------------------------------------------------------
 (Depth) Function   	        Calls       Base Space   Used Autos Params    Refs
 ---------------------------------------------------------------------------------
 (0) _main                                                 1     1      0     165
                                              7 COMMON     1     1      0
                    _DAC1_Initialize
                     _DAC1_SetOutput
                           _MIPIDATA
             _PIN_MANAGER_Initialize
                     _SPI_Initialize
                  _SYSTEM_Initialize
 ---------------------------------------------------------------------------------
 (1) _SYSTEM_Initialize                                    0     0      0      15
                    _DAC1_Initialize
                     _FVR_Initialize
              _OSCILLATOR_Initialize
             _PIN_MANAGER_Initialize
                     _SPI_Initialize
 ---------------------------------------------------------------------------------
 (2) _SPI_Initialize                                       0     0      0       0
 ---------------------------------------------------------------------------------
 (2) _PIN_MANAGER_Initialize                               1     1      0      15
                                              0 COMMON     1     1      0
 ---------------------------------------------------------------------------------
 (2) _OSCILLATOR_Initialize                                0     0      0       0
 ---------------------------------------------------------------------------------
 (2) _FVR_Initialize                                       0     0      0       0
 ---------------------------------------------------------------------------------
 (2) _DAC1_Initialize                                      0     0      0       0
 ---------------------------------------------------------------------------------
 (1) _MIPIDATA                                             6     6      0     120
                                              1 COMMON     6     6      0
                   _SPI_Exchange8bit
 ---------------------------------------------------------------------------------
 (2) _SPI_Exchange8bit                                     1     1      0      15
                                              0 COMMON     1     1      0
 ---------------------------------------------------------------------------------
 (1) _DAC1_SetOutput                                       1     1      0      15
                                              0 COMMON     1     1      0
 ---------------------------------------------------------------------------------
 Estimated maximum stack depth 2
 ---------------------------------------------------------------------------------

 Call Graph Graphs:

 _main (ROOT)
   _DAC1_Initialize
   _DAC1_SetOutput
   _MIPIDATA
     _SPI_Exchange8bit
   _PIN_MANAGER_Initialize
   _SPI_Initialize
   _SYSTEM_Initialize
     _DAC1_Initialize
     _FVR_Initialize
     _OSCILLATOR_Initialize
     _PIN_MANAGER_Initialize
     _SPI_Initialize

 Address spaces:
Name               Size   Autos  Total    Cost      Usage
BIGRAM             1F0      0       0       0        0.0%
NULL                 0      0       0       0        0.0%
CODE                 0      0       0       0        0.0%
BITCOMMON            E      0       0       1        0.0%
BITSFR0              0      0       0       1        0.0%
SFR0                 0      0       0       1        0.0%
COMMON               E      8       C       2       85.7%
BITSFR1              0      0       0       2        0.0%
SFR1                 0      0       0       2        0.0%
BITSFR2              0      0       0       3        0.0%
SFR2                 0      0       0       3        0.0%
STACK                0      0       0       3        0.0%
BITSFR3              0      0       0       4        0.0%
SFR3                 0      0       0       4        0.0%
ABS                  0      0       C       4        0.0%
BITBANK0            50      0       0       5        0.0%
BITSFR4              0      0       0       5        0.0%
SFR4                 0      0       0       5        0.0%
BANK0               50      0       0       6        0.0%
BITSFR5              0      0       0       6        0.0%
SFR5                 0      0       0       6        0.0%
BITBANK1            50      0       0       7        0.0%
BITSFR6              0      0       0       7        0.0%
SFR6                 0      0       0       7        0.0%
BANK1               50      0       0       8        0.0%
BITSFR7              0      0       0       8        0.0%
SFR7                 0      0       0       8        0.0%
BITBANK2            50      0       0       9        0.0%
BITSFR8              0      0       0       9        0.0%
SFR8                 0      0       0       9        0.0%
BANK2               50      0       0      10        0.0%
BITSFR9              0      0       0      10        0.0%
SFR9                 0      0       0      10        0.0%
BITBANK3            50      0       0      11        0.0%
BITSFR10             0      0       0      11        0.0%
SFR10                0      0       0      11        0.0%
BANK3               50      0       0      12        0.0%
BITSFR11             0      0       0      12        0.0%
SFR11                0      0       0      12        0.0%
BITBANK4            50      0       0      13        0.0%
BITSFR12             0      0       0      13        0.0%
SFR12                0      0       0      13        0.0%
BANK4               50      0       0      14        0.0%
BITSFR13             0      0       0      14        0.0%
SFR13                0      0       0      14        0.0%
BITBANK5            50      0       0      15        0.0%
BITSFR14             0      0       0      15        0.0%
SFR14                0      0       0      15        0.0%
BANK5               50      0       0      16        0.0%
BITSFR15             0      0       0      16        0.0%
SFR15                0      0       0      16        0.0%
BITBANK6            10      0       0      17        0.0%
BITSFR16             0      0       0      17        0.0%
SFR16                0      0       0      17        0.0%
BANK6               10      0       0      18        0.0%
BITSFR17             0      0       0      18        0.0%
SFR17                0      0       0      18        0.0%
BITSFR18             0      0       0      19        0.0%
SFR18                0      0       0      19        0.0%
DATA                 0      0       C      19        0.0%
BITSFR19             0      0       0      20        0.0%
SFR19                0      0       0      20        0.0%
BITSFR20             0      0       0      21        0.0%
SFR20                0      0       0      21        0.0%
BITSFR21             0      0       0      22        0.0%
SFR21                0      0       0      22        0.0%
BITSFR22             0      0       0      23        0.0%
SFR22                0      0       0      23        0.0%
BITSFR23             0      0       0      24        0.0%
SFR23                0      0       0      24        0.0%
BITSFR24             0      0       0      25        0.0%
SFR24                0      0       0      25        0.0%
BITSFR25             0      0       0      26        0.0%
SFR25                0      0       0      26        0.0%
BITSFR26             0      0       0      27        0.0%
SFR26                0      0       0      27        0.0%
BITSFR27             0      0       0      28        0.0%
SFR27                0      0       0      28        0.0%
BITSFR28             0      0       0      29        0.0%
SFR28                0      0       0      29        0.0%
BITSFR29             0      0       0      30        0.0%
SFR29                0      0       0      30        0.0%
BITSFR30             0      0       0      31        0.0%
SFR30                0      0       0      31        0.0%
BITSFR31             0      0       0      32        0.0%
SFR31                0      0       0      32        0.0%


Microchip Technology PIC Macro Assembler V1.34 build -361300703 
Symbol Table                                                                                   Tue Dec 15 09:34:14 2015

                 _SPI_Initialize 0608                      __CFG_CP$OFF 0000                               l18 0613  
                             u20 0698           __end_of_FVR_Initialize 05F8                      __CFG_LVP$ON 0000  
                _DAC1_Initialize 05FD                              l213 0731                              l215 0733  
                            l208 072E                              l250 0778                              l218 0735  
                            l243 0775                              l248 0777                              l810 06AF  
                            l740 062C                              l900 0781                              l902 078A  
                            l814 06BB                              l920 07BD                              l912 07A3  
                            l746 0642                              l930 07D6                              l914 07AC  
                            l906 0792                              l818 06C7                              l932 07DF  
                            l924 07C5                              l908 079B                              l828 06E3  
                            l926 07CE                              l918 07B4                              l936 07E7  
                            l864 0738                              l938 07F0                              l892 076D  
                            l884 075D                              l868 0743                              l888 0765  
                            l896 0779                              _GIE 005F                     __CFG_BORV$LO 0000  
                 _DAC1_SetOutput 05F8                     __CFG_ZCD$OFF 0000                             _LATA 010C  
                           _LATB 010D                             _LATC 010E                             _WPUB 020D  
                           _WPUC 020E                     __CFG_WRT$OFF 0000                             _main 069A  
                __end_of_USIDLOW 0884                             fsr0h 0005                             fsr0l 0004  
                           indf0 0000                             btemp 007E                             ltemp 007E  
                           start 0002                             ttemp 007E                             wtemp 007E  
         __end_of_SPI_Initialize 060E                  ?_FVR_Initialize 0070   __size_of_OSCILLATOR_Initialize 0006  
               __end_of_MIPIDATA 065E    __end_of_OSCILLATOR_Initialize 0608                            ?_main 0070  
                  __CFG_WDTE$OFF 0000                            _LATA1 0861                            _LATA2 0862  
                          _LATA4 0864                            _LATB4 086C           __end_of_DAC1_SetOutput 05FD  
                          _PORTC 000E                            _TRISA 008C                            _TRISB 008D  
                          _TRISC 008E                            _Byte1 0078                            _Byte2 0079  
                          _Byte3 007A                    __CFG_PWRTE$ON 0000                 __end_of_USIDHIGH 082C  
                 __CFG_BOREN$OFF 0000                            ltemp0 007E                            ltemp1 0082  
                          ltemp2 0086                            ltemp3 0080                            ttemp0 007E  
                          ttemp1 0081                            ttemp2 0084                            ttemp3 0087  
                          ttemp4 007F                            status 0003                            wtemp0 007E  
                          wtemp1 0080                            wtemp2 0082                            wtemp3 0084  
                          wtemp4 0086                            wtemp5 0088                            wtemp6 007F  
                ?_SPI_Initialize 0070                   __CFG_MCLRE$OFF 0000                  __initialization 07F9  
                   __end_of_main 07F9          __end_of_DAC1_Initialize 0602                   __CFG_LPBOR$OFF 0000  
                         ??_main 0077                  ?_DAC1_SetOutput 0070                   __CFG_PLLEN$OFF 0000  
       __end_of_SPI_Exchange8bit 0617                           _ANSELA 018C                           _ANSELB 018D  
                         _ANSELC 018E                           _RB6PPS 0E9E                           _RB7PPS 0E9F  
                         _FVRCON 0117                           _OSCCON 0099                           _SSPBUF 0211  
        DAC1_SetOutput@inputData 0070                   __CFG_STVREN$ON 0000                __end_of_DacOutput 08B4  
              _SYSTEM_Initialize 0617          __end_of__initialization 07FD                        ?_MIPIDATA 0070  
             ?_SYSTEM_Initialize 0070                   __pcstackCOMMON 0070              ??_SYSTEM_Initialize 0071  
               ?_DAC1_Initialize 0070                        MIPIDATA@i 0074                        MIPIDATA@j 0075  
                 _OPTION_REGbits 0095        __end_of_SYSTEM_Initialize 0626                       ??_MIPIDATA 0071  
               ??_FVR_Initialize 0070                       __pmaintext 069A                  __CFG_PPS1WAY$ON 0000  
                __CFG_WDTCCS$SWC 0000                          _OSCSTAT 009A                          _OSCTUNE 0098  
                        _SSP1ADD 0212                          _PPSLOCK 0E0F                          _USIDLOW 0858  
               ??_SPI_Initialize 0070                 ??_DAC1_SetOutput 0070                          __ptext1 0617  
                        __ptext2 0608                          __ptext3 065E                          __ptext4 0602  
                        __ptext5 05F4                          __ptext6 05FD                          __ptext7 0626  
                        __ptext8 060E                          __ptext9 05F8            _OSCILLATOR_Initialize 0602  
             __end_of_USIDLOWREV 08B0         ??_PIN_MANAGER_Initialize 0070                ?_SPI_Exchange8bit 0070  
     __size_of_SYSTEM_Initialize 000F             end_of_initialization 07FD               ??_SPI_Exchange8bit 0070  
           SPI_Exchange8bit@data 0070                     __pstringtext 0800                        _SSPDATPPS 0E21  
                      _SSPCLKPPS 0E20                    MIPIDATA@j_243 0076                 __CFG_FOSC$INTOSC 0000  
                      _DacOutput 08B0                __size_of_MIPIDATA 0038           ?_OSCILLATOR_Initialize 0070  
            start_initialization 07F9  __size_of_PIN_MANAGER_Initialize 003C         __size_of_DAC1_Initialize 0005  
                    __pbssCOMMON 0078                        ___latbits 0001           _PIN_MANAGER_Initialize 065E  
                       _DAC1CON0 0118                         _DAC1CON1 0119                        _readDummy 007B  
                       _MIPIDATA 0626        __size_of_SPI_Exchange8bit 0009             __CFG_WDTCPS$WDTCPS1F 0000  
                       _SSP1CON1 0215                         _SSP1STAT 0214                         _USIDHIGH 0800  
        __size_of_FVR_Initialize 0004                ??_DAC1_Initialize 0070          __size_of_SPI_Initialize 0006  
        ??_OSCILLATOR_Initialize 0070          __size_of_DAC1_SetOutput 0005                     _SSP1CON1bits 0215  
            __end_of_USIDHIGHREV 0858                    __size_of_main 015F             __CFG_WDTCWS$WDTCWSSW 0000  
                   _SSP1STATbits 0214      PIN_MANAGER_Initialize@state 0070                       _FVRCONbits 0117  
        ?_PIN_MANAGER_Initialize 0070                __CFG_CLKOUTEN$OFF 0000                      _PPSLOCKbits 0E0F  
               _SPI_Exchange8bit 060E                   _FVR_Initialize 05F4                      _USIDHIGHREV 082C  
 __end_of_PIN_MANAGER_Initialize 069A                       _USIDLOWREV 0884  
