

Microchip Technology PIC LITE Macro Assembler V1.34 build -361300703 
                                                                                               Mon Dec 21 14:41:11 2015

Microchip Technology Omniscient Code Generator (Lite mode) build 201502162209
     1                           	processor	16LF1618
     2                           	opt	pw 120
     3                           	opt	lm
     4                           	psect	stringtext,global,reloc=256,class=STRCODE,delta=2
     5                           	psect	cinit,global,class=CODE,merge=1,delta=2
     6                           	psect	bssCOMMON,global,class=COMMON,space=1,delta=1
     7                           	psect	bssBANK0,global,class=BANK0,space=1,delta=1
     8                           	psect	cstackCOMMON,global,class=COMMON,space=1,delta=1
     9                           	psect	maintext,global,class=CODE,merge=1,split=1,delta=2
    10                           	psect	text1,local,class=CODE,merge=1,delta=2
    11                           	psect	text2,local,class=CODE,merge=1,delta=2
    12                           	psect	text3,local,class=CODE,merge=1,delta=2
    13                           	psect	text4,local,class=CODE,merge=1,delta=2
    14                           	psect	text5,local,class=CODE,merge=1,delta=2
    15                           	psect	text6,local,class=CODE,merge=1,delta=2
    16                           	psect	text7,local,class=CODE,merge=1,delta=2
    17                           	dabs	1,0x7E,2
    18  0000                     	;# 
    19  0001                     	;# 
    20  0002                     	;# 
    21  0003                     	;# 
    22  0004                     	;# 
    23  0005                     	;# 
    24  0006                     	;# 
    25  0007                     	;# 
    26  0008                     	;# 
    27  0009                     	;# 
    28  000A                     	;# 
    29  000B                     	;# 
    30  000C                     	;# 
    31  000D                     	;# 
    32  000E                     	;# 
    33  0010                     	;# 
    34  0011                     	;# 
    35  0012                     	;# 
    36  0013                     	;# 
    37  0014                     	;# 
    38  0015                     	;# 
    39  0016                     	;# 
    40  0016                     	;# 
    41  0017                     	;# 
    42  0018                     	;# 
    43  0019                     	;# 
    44  001A                     	;# 
    45  001A                     	;# 
    46  001B                     	;# 
    47  001B                     	;# 
    48  001C                     	;# 
    49  001D                     	;# 
    50  001E                     	;# 
    51  001F                     	;# 
    52  008C                     	;# 
    53  008D                     	;# 
    54  008E                     	;# 
    55  0090                     	;# 
    56  0091                     	;# 
    57  0092                     	;# 
    58  0093                     	;# 
    59  0094                     	;# 
    60  0095                     	;# 
    61  0096                     	;# 
    62  0098                     	;# 
    63  0099                     	;# 
    64  009A                     	;# 
    65  009B                     	;# 
    66  009B                     	;# 
    67  009C                     	;# 
    68  009D                     	;# 
    69  009E                     	;# 
    70  009F                     	;# 
    71  010C                     	;# 
    72  010D                     	;# 
    73  010E                     	;# 
    74  0111                     	;# 
    75  0112                     	;# 
    76  0113                     	;# 
    77  0114                     	;# 
    78  0115                     	;# 
    79  0116                     	;# 
    80  0117                     	;# 
    81  0118                     	;# 
    82  0119                     	;# 
    83  011C                     	;# 
    84  018C                     	;# 
    85  018D                     	;# 
    86  018E                     	;# 
    87  0191                     	;# 
    88  0191                     	;# 
    89  0192                     	;# 
    90  0193                     	;# 
    91  0193                     	;# 
    92  0194                     	;# 
    93  0195                     	;# 
    94  0196                     	;# 
    95  0199                     	;# 
    96  0199                     	;# 
    97  0199                     	;# 
    98  019A                     	;# 
    99  019A                     	;# 
   100  019A                     	;# 
   101  019B                     	;# 
   102  019B                     	;# 
   103  019B                     	;# 
   104  019B                     	;# 
   105  019B                     	;# 
   106  019C                     	;# 
   107  019C                     	;# 
   108  019C                     	;# 
   109  019D                     	;# 
   110  019D                     	;# 
   111  019D                     	;# 
   112  019E                     	;# 
   113  019E                     	;# 
   114  019E                     	;# 
   115  019F                     	;# 
   116  019F                     	;# 
   117  019F                     	;# 
   118  019F                     	;# 
   119  019F                     	;# 
   120  020C                     	;# 
   121  020D                     	;# 
   122  020E                     	;# 
   123  0211                     	;# 
   124  0211                     	;# 
   125  0212                     	;# 
   126  0212                     	;# 
   127  0213                     	;# 
   128  0213                     	;# 
   129  0214                     	;# 
   130  0214                     	;# 
   131  0215                     	;# 
   132  0215                     	;# 
   133  0215                     	;# 
   134  0215                     	;# 
   135  0216                     	;# 
   136  0216                     	;# 
   137  0217                     	;# 
   138  0217                     	;# 
   139  028C                     	;# 
   140  028D                     	;# 
   141  028E                     	;# 
   142  0291                     	;# 
   143  0291                     	;# 
   144  0292                     	;# 
   145  0293                     	;# 
   146  0294                     	;# 
   147  0298                     	;# 
   148  0298                     	;# 
   149  0299                     	;# 
   150  029A                     	;# 
   151  029B                     	;# 
   152  029E                     	;# 
   153  030C                     	;# 
   154  030D                     	;# 
   155  030E                     	;# 
   156  038C                     	;# 
   157  038D                     	;# 
   158  038E                     	;# 
   159  0391                     	;# 
   160  0392                     	;# 
   161  0393                     	;# 
   162  0394                     	;# 
   163  0395                     	;# 
   164  0396                     	;# 
   165  0397                     	;# 
   166  0398                     	;# 
   167  0399                     	;# 
   168  040E                     	;# 
   169  0413                     	;# 
   170  0413                     	;# 
   171  0414                     	;# 
   172  0414                     	;# 
   173  0415                     	;# 
   174  0416                     	;# 
   175  0417                     	;# 
   176  0418                     	;# 
   177  041A                     	;# 
   178  041A                     	;# 
   179  041B                     	;# 
   180  041B                     	;# 
   181  041C                     	;# 
   182  041D                     	;# 
   183  041E                     	;# 
   184  041F                     	;# 
   185  0493                     	;# 
   186  0494                     	;# 
   187  0495                     	;# 
   188  0496                     	;# 
   189  049A                     	;# 
   190  049B                     	;# 
   191  049C                     	;# 
   192  049D                     	;# 
   193  058C                     	;# 
   194  058C                     	;# 
   195  058D                     	;# 
   196  058E                     	;# 
   197  058E                     	;# 
   198  058F                     	;# 
   199  0590                     	;# 
   200  0590                     	;# 
   201  0591                     	;# 
   202  0592                     	;# 
   203  0592                     	;# 
   204  0593                     	;# 
   205  0594                     	;# 
   206  0594                     	;# 
   207  0595                     	;# 
   208  0596                     	;# 
   209  0596                     	;# 
   210  0597                     	;# 
   211  0598                     	;# 
   212  0599                     	;# 
   213  059A                     	;# 
   214  059B                     	;# 
   215  059B                     	;# 
   216  059C                     	;# 
   217  059D                     	;# 
   218  060C                     	;# 
   219  060C                     	;# 
   220  060D                     	;# 
   221  060E                     	;# 
   222  060F                     	;# 
   223  060F                     	;# 
   224  0610                     	;# 
   225  0611                     	;# 
   226  0612                     	;# 
   227  0613                     	;# 
   228  0614                     	;# 
   229  0617                     	;# 
   230  0618                     	;# 
   231  0619                     	;# 
   232  061A                     	;# 
   233  061B                     	;# 
   234  061C                     	;# 
   235  0691                     	;# 
   236  0692                     	;# 
   237  0693                     	;# 
   238  0694                     	;# 
   239  0695                     	;# 
   240  0696                     	;# 
   241  0697                     	;# 
   242  0699                     	;# 
   243  069A                     	;# 
   244  0711                     	;# 
   245  0712                     	;# 
   246  0713                     	;# 
   247  0714                     	;# 
   248  0715                     	;# 
   249  0718                     	;# 
   250  0718                     	;# 
   251  0719                     	;# 
   252  071A                     	;# 
   253  071A                     	;# 
   254  071B                     	;# 
   255  071C                     	;# 
   256  071D                     	;# 
   257  0791                     	;# 
   258  0791                     	;# 
   259  0792                     	;# 
   260  0793                     	;# 
   261  0793                     	;# 
   262  0794                     	;# 
   263  0795                     	;# 
   264  0795                     	;# 
   265  0796                     	;# 
   266  0797                     	;# 
   267  0797                     	;# 
   268  0798                     	;# 
   269  0799                     	;# 
   270  079A                     	;# 
   271  080C                     	;# 
   272  080C                     	;# 
   273  080D                     	;# 
   274  080E                     	;# 
   275  080E                     	;# 
   276  080F                     	;# 
   277  0810                     	;# 
   278  0810                     	;# 
   279  0811                     	;# 
   280  0812                     	;# 
   281  0812                     	;# 
   282  0813                     	;# 
   283  0814                     	;# 
   284  0815                     	;# 
   285  0816                     	;# 
   286  0817                     	;# 
   287  0818                     	;# 
   288  0819                     	;# 
   289  081A                     	;# 
   290  081A                     	;# 
   291  081B                     	;# 
   292  081C                     	;# 
   293  081C                     	;# 
   294  081D                     	;# 
   295  088C                     	;# 
   296  088D                     	;# 
   297  088E                     	;# 
   298  088F                     	;# 
   299  088F                     	;# 
   300  0890                     	;# 
   301  0891                     	;# 
   302  0892                     	;# 
   303  0893                     	;# 
   304  0893                     	;# 
   305  0894                     	;# 
   306  0895                     	;# 
   307  0896                     	;# 
   308  0897                     	;# 
   309  0897                     	;# 
   310  0898                     	;# 
   311  0899                     	;# 
   312  0D8C                     	;# 
   313  0D8C                     	;# 
   314  0D8D                     	;# 
   315  0D8E                     	;# 
   316  0D8F                     	;# 
   317  0D8F                     	;# 
   318  0D90                     	;# 
   319  0D91                     	;# 
   320  0D92                     	;# 
   321  0D92                     	;# 
   322  0D93                     	;# 
   323  0D94                     	;# 
   324  0D95                     	;# 
   325  0D95                     	;# 
   326  0D96                     	;# 
   327  0D97                     	;# 
   328  0D98                     	;# 
   329  0D99                     	;# 
   330  0D9A                     	;# 
   331  0D9B                     	;# 
   332  0D9C                     	;# 
   333  0D9D                     	;# 
   334  0D9E                     	;# 
   335  0D9E                     	;# 
   336  0D9F                     	;# 
   337  0DA0                     	;# 
   338  0DA1                     	;# 
   339  0DA1                     	;# 
   340  0DA2                     	;# 
   341  0DA3                     	;# 
   342  0DA4                     	;# 
   343  0DA4                     	;# 
   344  0DA5                     	;# 
   345  0DA6                     	;# 
   346  0DA7                     	;# 
   347  0DA7                     	;# 
   348  0DA8                     	;# 
   349  0DA9                     	;# 
   350  0DAA                     	;# 
   351  0DAB                     	;# 
   352  0DAC                     	;# 
   353  0DAD                     	;# 
   354  0DAE                     	;# 
   355  0DAF                     	;# 
   356  0E0F                     	;# 
   357  0E10                     	;# 
   358  0E11                     	;# 
   359  0E12                     	;# 
   360  0E13                     	;# 
   361  0E14                     	;# 
   362  0E15                     	;# 
   363  0E16                     	;# 
   364  0E17                     	;# 
   365  0E18                     	;# 
   366  0E19                     	;# 
   367  0E1A                     	;# 
   368  0E1B                     	;# 
   369  0E1C                     	;# 
   370  0E1D                     	;# 
   371  0E1E                     	;# 
   372  0E1F                     	;# 
   373  0E20                     	;# 
   374  0E21                     	;# 
   375  0E22                     	;# 
   376  0E23                     	;# 
   377  0E24                     	;# 
   378  0E25                     	;# 
   379  0E26                     	;# 
   380  0E27                     	;# 
   381  0E28                     	;# 
   382  0E29                     	;# 
   383  0E2A                     	;# 
   384  0E2B                     	;# 
   385  0E2C                     	;# 
   386  0E2D                     	;# 
   387  0E2E                     	;# 
   388  0E90                     	;# 
   389  0E91                     	;# 
   390  0E92                     	;# 
   391  0E94                     	;# 
   392  0E95                     	;# 
   393  0E9C                     	;# 
   394  0E9D                     	;# 
   395  0E9E                     	;# 
   396  0E9F                     	;# 
   397  0EA0                     	;# 
   398  0EA1                     	;# 
   399  0EA2                     	;# 
   400  0EA3                     	;# 
   401  0EA4                     	;# 
   402  0EA5                     	;# 
   403  0EA6                     	;# 
   404  0EA7                     	;# 
   405  0F0F                     	;# 
   406  0F10                     	;# 
   407  0F11                     	;# 
   408  0F12                     	;# 
   409  0F13                     	;# 
   410  0F14                     	;# 
   411  0F15                     	;# 
   412  0F16                     	;# 
   413  0F17                     	;# 
   414  0F18                     	;# 
   415  0F19                     	;# 
   416  0F1A                     	;# 
   417  0F1B                     	;# 
   418  0F1C                     	;# 
   419  0F1D                     	;# 
   420  0F1E                     	;# 
   421  0F1F                     	;# 
   422  0F20                     	;# 
   423  0F21                     	;# 
   424  0F22                     	;# 
   425  0F23                     	;# 
   426  0FE4                     	;# 
   427  0FE5                     	;# 
   428  0FE6                     	;# 
   429  0FE7                     	;# 
   430  0FE8                     	;# 
   431  0FE9                     	;# 
   432  0FEA                     	;# 
   433  0FEB                     	;# 
   434  0FED                     	;# 
   435  0FEE                     	;# 
   436  0FEF                     	;# 
   437  0000                     	;# 
   438  0001                     	;# 
   439  0002                     	;# 
   440  0003                     	;# 
   441  0004                     	;# 
   442  0005                     	;# 
   443  0006                     	;# 
   444  0007                     	;# 
   445  0008                     	;# 
   446  0009                     	;# 
   447  000A                     	;# 
   448  000B                     	;# 
   449  000C                     	;# 
   450  000D                     	;# 
   451  000E                     	;# 
   452  0010                     	;# 
   453  0011                     	;# 
   454  0012                     	;# 
   455  0013                     	;# 
   456  0014                     	;# 
   457  0015                     	;# 
   458  0016                     	;# 
   459  0016                     	;# 
   460  0017                     	;# 
   461  0018                     	;# 
   462  0019                     	;# 
   463  001A                     	;# 
   464  001A                     	;# 
   465  001B                     	;# 
   466  001B                     	;# 
   467  001C                     	;# 
   468  001D                     	;# 
   469  001E                     	;# 
   470  001F                     	;# 
   471  008C                     	;# 
   472  008D                     	;# 
   473  008E                     	;# 
   474  0090                     	;# 
   475  0091                     	;# 
   476  0092                     	;# 
   477  0093                     	;# 
   478  0094                     	;# 
   479  0095                     	;# 
   480  0096                     	;# 
   481  0098                     	;# 
   482  0099                     	;# 
   483  009A                     	;# 
   484  009B                     	;# 
   485  009B                     	;# 
   486  009C                     	;# 
   487  009D                     	;# 
   488  009E                     	;# 
   489  009F                     	;# 
   490  010C                     	;# 
   491  010D                     	;# 
   492  010E                     	;# 
   493  0111                     	;# 
   494  0112                     	;# 
   495  0113                     	;# 
   496  0114                     	;# 
   497  0115                     	;# 
   498  0116                     	;# 
   499  0117                     	;# 
   500  0118                     	;# 
   501  0119                     	;# 
   502  011C                     	;# 
   503  018C                     	;# 
   504  018D                     	;# 
   505  018E                     	;# 
   506  0191                     	;# 
   507  0191                     	;# 
   508  0192                     	;# 
   509  0193                     	;# 
   510  0193                     	;# 
   511  0194                     	;# 
   512  0195                     	;# 
   513  0196                     	;# 
   514  0199                     	;# 
   515  0199                     	;# 
   516  0199                     	;# 
   517  019A                     	;# 
   518  019A                     	;# 
   519  019A                     	;# 
   520  019B                     	;# 
   521  019B                     	;# 
   522  019B                     	;# 
   523  019B                     	;# 
   524  019B                     	;# 
   525  019C                     	;# 
   526  019C                     	;# 
   527  019C                     	;# 
   528  019D                     	;# 
   529  019D                     	;# 
   530  019D                     	;# 
   531  019E                     	;# 
   532  019E                     	;# 
   533  019E                     	;# 
   534  019F                     	;# 
   535  019F                     	;# 
   536  019F                     	;# 
   537  019F                     	;# 
   538  019F                     	;# 
   539  020C                     	;# 
   540  020D                     	;# 
   541  020E                     	;# 
   542  0211                     	;# 
   543  0211                     	;# 
   544  0212                     	;# 
   545  0212                     	;# 
   546  0213                     	;# 
   547  0213                     	;# 
   548  0214                     	;# 
   549  0214                     	;# 
   550  0215                     	;# 
   551  0215                     	;# 
   552  0215                     	;# 
   553  0215                     	;# 
   554  0216                     	;# 
   555  0216                     	;# 
   556  0217                     	;# 
   557  0217                     	;# 
   558  028C                     	;# 
   559  028D                     	;# 
   560  028E                     	;# 
   561  0291                     	;# 
   562  0291                     	;# 
   563  0292                     	;# 
   564  0293                     	;# 
   565  0294                     	;# 
   566  0298                     	;# 
   567  0298                     	;# 
   568  0299                     	;# 
   569  029A                     	;# 
   570  029B                     	;# 
   571  029E                     	;# 
   572  030C                     	;# 
   573  030D                     	;# 
   574  030E                     	;# 
   575  038C                     	;# 
   576  038D                     	;# 
   577  038E                     	;# 
   578  0391                     	;# 
   579  0392                     	;# 
   580  0393                     	;# 
   581  0394                     	;# 
   582  0395                     	;# 
   583  0396                     	;# 
   584  0397                     	;# 
   585  0398                     	;# 
   586  0399                     	;# 
   587  040E                     	;# 
   588  0413                     	;# 
   589  0413                     	;# 
   590  0414                     	;# 
   591  0414                     	;# 
   592  0415                     	;# 
   593  0416                     	;# 
   594  0417                     	;# 
   595  0418                     	;# 
   596  041A                     	;# 
   597  041A                     	;# 
   598  041B                     	;# 
   599  041B                     	;# 
   600  041C                     	;# 
   601  041D                     	;# 
   602  041E                     	;# 
   603  041F                     	;# 
   604  0493                     	;# 
   605  0494                     	;# 
   606  0495                     	;# 
   607  0496                     	;# 
   608  049A                     	;# 
   609  049B                     	;# 
   610  049C                     	;# 
   611  049D                     	;# 
   612  058C                     	;# 
   613  058C                     	;# 
   614  058D                     	;# 
   615  058E                     	;# 
   616  058E                     	;# 
   617  058F                     	;# 
   618  0590                     	;# 
   619  0590                     	;# 
   620  0591                     	;# 
   621  0592                     	;# 
   622  0592                     	;# 
   623  0593                     	;# 
   624  0594                     	;# 
   625  0594                     	;# 
   626  0595                     	;# 
   627  0596                     	;# 
   628  0596                     	;# 
   629  0597                     	;# 
   630  0598                     	;# 
   631  0599                     	;# 
   632  059A                     	;# 
   633  059B                     	;# 
   634  059B                     	;# 
   635  059C                     	;# 
   636  059D                     	;# 
   637  060C                     	;# 
   638  060C                     	;# 
   639  060D                     	;# 
   640  060E                     	;# 
   641  060F                     	;# 
   642  060F                     	;# 
   643  0610                     	;# 
   644  0611                     	;# 
   645  0612                     	;# 
   646  0613                     	;# 
   647  0614                     	;# 
   648  0617                     	;# 
   649  0618                     	;# 
   650  0619                     	;# 
   651  061A                     	;# 
   652  061B                     	;# 
   653  061C                     	;# 
   654  0691                     	;# 
   655  0692                     	;# 
   656  0693                     	;# 
   657  0694                     	;# 
   658  0695                     	;# 
   659  0696                     	;# 
   660  0697                     	;# 
   661  0699                     	;# 
   662  069A                     	;# 
   663  0711                     	;# 
   664  0712                     	;# 
   665  0713                     	;# 
   666  0714                     	;# 
   667  0715                     	;# 
   668  0718                     	;# 
   669  0718                     	;# 
   670  0719                     	;# 
   671  071A                     	;# 
   672  071A                     	;# 
   673  071B                     	;# 
   674  071C                     	;# 
   675  071D                     	;# 
   676  0791                     	;# 
   677  0791                     	;# 
   678  0792                     	;# 
   679  0793                     	;# 
   680  0793                     	;# 
   681  0794                     	;# 
   682  0795                     	;# 
   683  0795                     	;# 
   684  0796                     	;# 
   685  0797                     	;# 
   686  0797                     	;# 
   687  0798                     	;# 
   688  0799                     	;# 
   689  079A                     	;# 
   690  080C                     	;# 
   691  080C                     	;# 
   692  080D                     	;# 
   693  080E                     	;# 
   694  080E                     	;# 
   695  080F                     	;# 
   696  0810                     	;# 
   697  0810                     	;# 
   698  0811                     	;# 
   699  0812                     	;# 
   700  0812                     	;# 
   701  0813                     	;# 
   702  0814                     	;# 
   703  0815                     	;# 
   704  0816                     	;# 
   705  0817                     	;# 
   706  0818                     	;# 
   707  0819                     	;# 
   708  081A                     	;# 
   709  081A                     	;# 
   710  081B                     	;# 
   711  081C                     	;# 
   712  081C                     	;# 
   713  081D                     	;# 
   714  088C                     	;# 
   715  088D                     	;# 
   716  088E                     	;# 
   717  088F                     	;# 
   718  088F                     	;# 
   719  0890                     	;# 
   720  0891                     	;# 
   721  0892                     	;# 
   722  0893                     	;# 
   723  0893                     	;# 
   724  0894                     	;# 
   725  0895                     	;# 
   726  0896                     	;# 
   727  0897                     	;# 
   728  0897                     	;# 
   729  0898                     	;# 
   730  0899                     	;# 
   731  0D8C                     	;# 
   732  0D8C                     	;# 
   733  0D8D                     	;# 
   734  0D8E                     	;# 
   735  0D8F                     	;# 
   736  0D8F                     	;# 
   737  0D90                     	;# 
   738  0D91                     	;# 
   739  0D92                     	;# 
   740  0D92                     	;# 
   741  0D93                     	;# 
   742  0D94                     	;# 
   743  0D95                     	;# 
   744  0D95                     	;# 
   745  0D96                     	;# 
   746  0D97                     	;# 
   747  0D98                     	;# 
   748  0D99                     	;# 
   749  0D9A                     	;# 
   750  0D9B                     	;# 
   751  0D9C                     	;# 
   752  0D9D                     	;# 
   753  0D9E                     	;# 
   754  0D9E                     	;# 
   755  0D9F                     	;# 
   756  0DA0                     	;# 
   757  0DA1                     	;# 
   758  0DA1                     	;# 
   759  0DA2                     	;# 
   760  0DA3                     	;# 
   761  0DA4                     	;# 
   762  0DA4                     	;# 
   763  0DA5                     	;# 
   764  0DA6                     	;# 
   765  0DA7                     	;# 
   766  0DA7                     	;# 
   767  0DA8                     	;# 
   768  0DA9                     	;# 
   769  0DAA                     	;# 
   770  0DAB                     	;# 
   771  0DAC                     	;# 
   772  0DAD                     	;# 
   773  0DAE                     	;# 
   774  0DAF                     	;# 
   775  0E0F                     	;# 
   776  0E10                     	;# 
   777  0E11                     	;# 
   778  0E12                     	;# 
   779  0E13                     	;# 
   780  0E14                     	;# 
   781  0E15                     	;# 
   782  0E16                     	;# 
   783  0E17                     	;# 
   784  0E18                     	;# 
   785  0E19                     	;# 
   786  0E1A                     	;# 
   787  0E1B                     	;# 
   788  0E1C                     	;# 
   789  0E1D                     	;# 
   790  0E1E                     	;# 
   791  0E1F                     	;# 
   792  0E20                     	;# 
   793  0E21                     	;# 
   794  0E22                     	;# 
   795  0E23                     	;# 
   796  0E24                     	;# 
   797  0E25                     	;# 
   798  0E26                     	;# 
   799  0E27                     	;# 
   800  0E28                     	;# 
   801  0E29                     	;# 
   802  0E2A                     	;# 
   803  0E2B                     	;# 
   804  0E2C                     	;# 
   805  0E2D                     	;# 
   806  0E2E                     	;# 
   807  0E90                     	;# 
   808  0E91                     	;# 
   809  0E92                     	;# 
   810  0E94                     	;# 
   811  0E95                     	;# 
   812  0E9C                     	;# 
   813  0E9D                     	;# 
   814  0E9E                     	;# 
   815  0E9F                     	;# 
   816  0EA0                     	;# 
   817  0EA1                     	;# 
   818  0EA2                     	;# 
   819  0EA3                     	;# 
   820  0EA4                     	;# 
   821  0EA5                     	;# 
   822  0EA6                     	;# 
   823  0EA7                     	;# 
   824  0F0F                     	;# 
   825  0F10                     	;# 
   826  0F11                     	;# 
   827  0F12                     	;# 
   828  0F13                     	;# 
   829  0F14                     	;# 
   830  0F15                     	;# 
   831  0F16                     	;# 
   832  0F17                     	;# 
   833  0F18                     	;# 
   834  0F19                     	;# 
   835  0F1A                     	;# 
   836  0F1B                     	;# 
   837  0F1C                     	;# 
   838  0F1D                     	;# 
   839  0F1E                     	;# 
   840  0F1F                     	;# 
   841  0F20                     	;# 
   842  0F21                     	;# 
   843  0F22                     	;# 
   844  0F23                     	;# 
   845  0FE4                     	;# 
   846  0FE5                     	;# 
   847  0FE6                     	;# 
   848  0FE7                     	;# 
   849  0FE8                     	;# 
   850  0FE9                     	;# 
   851  0FEA                     	;# 
   852  0FEB                     	;# 
   853  0FED                     	;# 
   854  0FEE                     	;# 
   855  0FEF                     	;# 
   856  0000                     	;# 
   857  0001                     	;# 
   858  0002                     	;# 
   859  0003                     	;# 
   860  0004                     	;# 
   861  0005                     	;# 
   862  0006                     	;# 
   863  0007                     	;# 
   864  0008                     	;# 
   865  0009                     	;# 
   866  000A                     	;# 
   867  000B                     	;# 
   868  000C                     	;# 
   869  000D                     	;# 
   870  000E                     	;# 
   871  0010                     	;# 
   872  0011                     	;# 
   873  0012                     	;# 
   874  0013                     	;# 
   875  0014                     	;# 
   876  0015                     	;# 
   877  0016                     	;# 
   878  0016                     	;# 
   879  0017                     	;# 
   880  0018                     	;# 
   881  0019                     	;# 
   882  001A                     	;# 
   883  001A                     	;# 
   884  001B                     	;# 
   885  001B                     	;# 
   886  001C                     	;# 
   887  001D                     	;# 
   888  001E                     	;# 
   889  001F                     	;# 
   890  008C                     	;# 
   891  008D                     	;# 
   892  008E                     	;# 
   893  0090                     	;# 
   894  0091                     	;# 
   895  0092                     	;# 
   896  0093                     	;# 
   897  0094                     	;# 
   898  0095                     	;# 
   899  0096                     	;# 
   900  0098                     	;# 
   901  0099                     	;# 
   902  009A                     	;# 
   903  009B                     	;# 
   904  009B                     	;# 
   905  009C                     	;# 
   906  009D                     	;# 
   907  009E                     	;# 
   908  009F                     	;# 
   909  010C                     	;# 
   910  010D                     	;# 
   911  010E                     	;# 
   912  0111                     	;# 
   913  0112                     	;# 
   914  0113                     	;# 
   915  0114                     	;# 
   916  0115                     	;# 
   917  0116                     	;# 
   918  0117                     	;# 
   919  0118                     	;# 
   920  0119                     	;# 
   921  011C                     	;# 
   922  018C                     	;# 
   923  018D                     	;# 
   924  018E                     	;# 
   925  0191                     	;# 
   926  0191                     	;# 
   927  0192                     	;# 
   928  0193                     	;# 
   929  0193                     	;# 
   930  0194                     	;# 
   931  0195                     	;# 
   932  0196                     	;# 
   933  0199                     	;# 
   934  0199                     	;# 
   935  0199                     	;# 
   936  019A                     	;# 
   937  019A                     	;# 
   938  019A                     	;# 
   939  019B                     	;# 
   940  019B                     	;# 
   941  019B                     	;# 
   942  019B                     	;# 
   943  019B                     	;# 
   944  019C                     	;# 
   945  019C                     	;# 
   946  019C                     	;# 
   947  019D                     	;# 
   948  019D                     	;# 
   949  019D                     	;# 
   950  019E                     	;# 
   951  019E                     	;# 
   952  019E                     	;# 
   953  019F                     	;# 
   954  019F                     	;# 
   955  019F                     	;# 
   956  019F                     	;# 
   957  019F                     	;# 
   958  020C                     	;# 
   959  020D                     	;# 
   960  020E                     	;# 
   961  0211                     	;# 
   962  0211                     	;# 
   963  0212                     	;# 
   964  0212                     	;# 
   965  0213                     	;# 
   966  0213                     	;# 
   967  0214                     	;# 
   968  0214                     	;# 
   969  0215                     	;# 
   970  0215                     	;# 
   971  0215                     	;# 
   972  0215                     	;# 
   973  0216                     	;# 
   974  0216                     	;# 
   975  0217                     	;# 
   976  0217                     	;# 
   977  028C                     	;# 
   978  028D                     	;# 
   979  028E                     	;# 
   980  0291                     	;# 
   981  0291                     	;# 
   982  0292                     	;# 
   983  0293                     	;# 
   984  0294                     	;# 
   985  0298                     	;# 
   986  0298                     	;# 
   987  0299                     	;# 
   988  029A                     	;# 
   989  029B                     	;# 
   990  029E                     	;# 
   991  030C                     	;# 
   992  030D                     	;# 
   993  030E                     	;# 
   994  038C                     	;# 
   995  038D                     	;# 
   996  038E                     	;# 
   997  0391                     	;# 
   998  0392                     	;# 
   999  0393                     	;# 
  1000  0394                     	;# 
  1001  0395                     	;# 
  1002  0396                     	;# 
  1003  0397                     	;# 
  1004  0398                     	;# 
  1005  0399                     	;# 
  1006  040E                     	;# 
  1007  0413                     	;# 
  1008  0413                     	;# 
  1009  0414                     	;# 
  1010  0414                     	;# 
  1011  0415                     	;# 
  1012  0416                     	;# 
  1013  0417                     	;# 
  1014  0418                     	;# 
  1015  041A                     	;# 
  1016  041A                     	;# 
  1017  041B                     	;# 
  1018  041B                     	;# 
  1019  041C                     	;# 
  1020  041D                     	;# 
  1021  041E                     	;# 
  1022  041F                     	;# 
  1023  0493                     	;# 
  1024  0494                     	;# 
  1025  0495                     	;# 
  1026  0496                     	;# 
  1027  049A                     	;# 
  1028  049B                     	;# 
  1029  049C                     	;# 
  1030  049D                     	;# 
  1031  058C                     	;# 
  1032  058C                     	;# 
  1033  058D                     	;# 
  1034  058E                     	;# 
  1035  058E                     	;# 
  1036  058F                     	;# 
  1037  0590                     	;# 
  1038  0590                     	;# 
  1039  0591                     	;# 
  1040  0592                     	;# 
  1041  0592                     	;# 
  1042  0593                     	;# 
  1043  0594                     	;# 
  1044  0594                     	;# 
  1045  0595                     	;# 
  1046  0596                     	;# 
  1047  0596                     	;# 
  1048  0597                     	;# 
  1049  0598                     	;# 
  1050  0599                     	;# 
  1051  059A                     	;# 
  1052  059B                     	;# 
  1053  059B                     	;# 
  1054  059C                     	;# 
  1055  059D                     	;# 
  1056  060C                     	;# 
  1057  060C                     	;# 
  1058  060D                     	;# 
  1059  060E                     	;# 
  1060  060F                     	;# 
  1061  060F                     	;# 
  1062  0610                     	;# 
  1063  0611                     	;# 
  1064  0612                     	;# 
  1065  0613                     	;# 
  1066  0614                     	;# 
  1067  0617                     	;# 
  1068  0618                     	;# 
  1069  0619                     	;# 
  1070  061A                     	;# 
  1071  061B                     	;# 
  1072  061C                     	;# 
  1073  0691                     	;# 
  1074  0692                     	;# 
  1075  0693                     	;# 
  1076  0694                     	;# 
  1077  0695                     	;# 
  1078  0696                     	;# 
  1079  0697                     	;# 
  1080  0699                     	;# 
  1081  069A                     	;# 
  1082  0711                     	;# 
  1083  0712                     	;# 
  1084  0713                     	;# 
  1085  0714                     	;# 
  1086  0715                     	;# 
  1087  0718                     	;# 
  1088  0718                     	;# 
  1089  0719                     	;# 
  1090  071A                     	;# 
  1091  071A                     	;# 
  1092  071B                     	;# 
  1093  071C                     	;# 
  1094  071D                     	;# 
  1095  0791                     	;# 
  1096  0791                     	;# 
  1097  0792                     	;# 
  1098  0793                     	;# 
  1099  0793                     	;# 
  1100  0794                     	;# 
  1101  0795                     	;# 
  1102  0795                     	;# 
  1103  0796                     	;# 
  1104  0797                     	;# 
  1105  0797                     	;# 
  1106  0798                     	;# 
  1107  0799                     	;# 
  1108  079A                     	;# 
  1109  080C                     	;# 
  1110  080C                     	;# 
  1111  080D                     	;# 
  1112  080E                     	;# 
  1113  080E                     	;# 
  1114  080F                     	;# 
  1115  0810                     	;# 
  1116  0810                     	;# 
  1117  0811                     	;# 
  1118  0812                     	;# 
  1119  0812                     	;# 
  1120  0813                     	;# 
  1121  0814                     	;# 
  1122  0815                     	;# 
  1123  0816                     	;# 
  1124  0817                     	;# 
  1125  0818                     	;# 
  1126  0819                     	;# 
  1127  081A                     	;# 
  1128  081A                     	;# 
  1129  081B                     	;# 
  1130  081C                     	;# 
  1131  081C                     	;# 
  1132  081D                     	;# 
  1133  088C                     	;# 
  1134  088D                     	;# 
  1135  088E                     	;# 
  1136  088F                     	;# 
  1137  088F                     	;# 
  1138  0890                     	;# 
  1139  0891                     	;# 
  1140  0892                     	;# 
  1141  0893                     	;# 
  1142  0893                     	;# 
  1143  0894                     	;# 
  1144  0895                     	;# 
  1145  0896                     	;# 
  1146  0897                     	;# 
  1147  0897                     	;# 
  1148  0898                     	;# 
  1149  0899                     	;# 
  1150  0D8C                     	;# 
  1151  0D8C                     	;# 
  1152  0D8D                     	;# 
  1153  0D8E                     	;# 
  1154  0D8F                     	;# 
  1155  0D8F                     	;# 
  1156  0D90                     	;# 
  1157  0D91                     	;# 
  1158  0D92                     	;# 
  1159  0D92                     	;# 
  1160  0D93                     	;# 
  1161  0D94                     	;# 
  1162  0D95                     	;# 
  1163  0D95                     	;# 
  1164  0D96                     	;# 
  1165  0D97                     	;# 
  1166  0D98                     	;# 
  1167  0D99                     	;# 
  1168  0D9A                     	;# 
  1169  0D9B                     	;# 
  1170  0D9C                     	;# 
  1171  0D9D                     	;# 
  1172  0D9E                     	;# 
  1173  0D9E                     	;# 
  1174  0D9F                     	;# 
  1175  0DA0                     	;# 
  1176  0DA1                     	;# 
  1177  0DA1                     	;# 
  1178  0DA2                     	;# 
  1179  0DA3                     	;# 
  1180  0DA4                     	;# 
  1181  0DA4                     	;# 
  1182  0DA5                     	;# 
  1183  0DA6                     	;# 
  1184  0DA7                     	;# 
  1185  0DA7                     	;# 
  1186  0DA8                     	;# 
  1187  0DA9                     	;# 
  1188  0DAA                     	;# 
  1189  0DAB                     	;# 
  1190  0DAC                     	;# 
  1191  0DAD                     	;# 
  1192  0DAE                     	;# 
  1193  0DAF                     	;# 
  1194  0E0F                     	;# 
  1195  0E10                     	;# 
  1196  0E11                     	;# 
  1197  0E12                     	;# 
  1198  0E13                     	;# 
  1199  0E14                     	;# 
  1200  0E15                     	;# 
  1201  0E16                     	;# 
  1202  0E17                     	;# 
  1203  0E18                     	;# 
  1204  0E19                     	;# 
  1205  0E1A                     	;# 
  1206  0E1B                     	;# 
  1207  0E1C                     	;# 
  1208  0E1D                     	;# 
  1209  0E1E                     	;# 
  1210  0E1F                     	;# 
  1211  0E20                     	;# 
  1212  0E21                     	;# 
  1213  0E22                     	;# 
  1214  0E23                     	;# 
  1215  0E24                     	;# 
  1216  0E25                     	;# 
  1217  0E26                     	;# 
  1218  0E27                     	;# 
  1219  0E28                     	;# 
  1220  0E29                     	;# 
  1221  0E2A                     	;# 
  1222  0E2B                     	;# 
  1223  0E2C                     	;# 
  1224  0E2D                     	;# 
  1225  0E2E                     	;# 
  1226  0E90                     	;# 
  1227  0E91                     	;# 
  1228  0E92                     	;# 
  1229  0E94                     	;# 
  1230  0E95                     	;# 
  1231  0E9C                     	;# 
  1232  0E9D                     	;# 
  1233  0E9E                     	;# 
  1234  0E9F                     	;# 
  1235  0EA0                     	;# 
  1236  0EA1                     	;# 
  1237  0EA2                     	;# 
  1238  0EA3                     	;# 
  1239  0EA4                     	;# 
  1240  0EA5                     	;# 
  1241  0EA6                     	;# 
  1242  0EA7                     	;# 
  1243  0F0F                     	;# 
  1244  0F10                     	;# 
  1245  0F11                     	;# 
  1246  0F12                     	;# 
  1247  0F13                     	;# 
  1248  0F14                     	;# 
  1249  0F15                     	;# 
  1250  0F16                     	;# 
  1251  0F17                     	;# 
  1252  0F18                     	;# 
  1253  0F19                     	;# 
  1254  0F1A                     	;# 
  1255  0F1B                     	;# 
  1256  0F1C                     	;# 
  1257  0F1D                     	;# 
  1258  0F1E                     	;# 
  1259  0F1F                     	;# 
  1260  0F20                     	;# 
  1261  0F21                     	;# 
  1262  0F22                     	;# 
  1263  0F23                     	;# 
  1264  0FE4                     	;# 
  1265  0FE5                     	;# 
  1266  0FE6                     	;# 
  1267  0FE7                     	;# 
  1268  0FE8                     	;# 
  1269  0FE9                     	;# 
  1270  0FEA                     	;# 
  1271  0FEB                     	;# 
  1272  0FED                     	;# 
  1273  0FEE                     	;# 
  1274  0FEF                     	;# 
  1275  0000                     	;# 
  1276  0001                     	;# 
  1277  0002                     	;# 
  1278  0003                     	;# 
  1279  0004                     	;# 
  1280  0005                     	;# 
  1281  0006                     	;# 
  1282  0007                     	;# 
  1283  0008                     	;# 
  1284  0009                     	;# 
  1285  000A                     	;# 
  1286  000B                     	;# 
  1287  000C                     	;# 
  1288  000D                     	;# 
  1289  000E                     	;# 
  1290  0010                     	;# 
  1291  0011                     	;# 
  1292  0012                     	;# 
  1293  0013                     	;# 
  1294  0014                     	;# 
  1295  0015                     	;# 
  1296  0016                     	;# 
  1297  0016                     	;# 
  1298  0017                     	;# 
  1299  0018                     	;# 
  1300  0019                     	;# 
  1301  001A                     	;# 
  1302  001A                     	;# 
  1303  001B                     	;# 
  1304  001B                     	;# 
  1305  001C                     	;# 
  1306  001D                     	;# 
  1307  001E                     	;# 
  1308  001F                     	;# 
  1309  008C                     	;# 
  1310  008D                     	;# 
  1311  008E                     	;# 
  1312  0090                     	;# 
  1313  0091                     	;# 
  1314  0092                     	;# 
  1315  0093                     	;# 
  1316  0094                     	;# 
  1317  0095                     	;# 
  1318  0096                     	;# 
  1319  0098                     	;# 
  1320  0099                     	;# 
  1321  009A                     	;# 
  1322  009B                     	;# 
  1323  009B                     	;# 
  1324  009C                     	;# 
  1325  009D                     	;# 
  1326  009E                     	;# 
  1327  009F                     	;# 
  1328  010C                     	;# 
  1329  010D                     	;# 
  1330  010E                     	;# 
  1331  0111                     	;# 
  1332  0112                     	;# 
  1333  0113                     	;# 
  1334  0114                     	;# 
  1335  0115                     	;# 
  1336  0116                     	;# 
  1337  0117                     	;# 
  1338  0118                     	;# 
  1339  0119                     	;# 
  1340  011C                     	;# 
  1341  018C                     	;# 
  1342  018D                     	;# 
  1343  018E                     	;# 
  1344  0191                     	;# 
  1345  0191                     	;# 
  1346  0192                     	;# 
  1347  0193                     	;# 
  1348  0193                     	;# 
  1349  0194                     	;# 
  1350  0195                     	;# 
  1351  0196                     	;# 
  1352  0199                     	;# 
  1353  0199                     	;# 
  1354  0199                     	;# 
  1355  019A                     	;# 
  1356  019A                     	;# 
  1357  019A                     	;# 
  1358  019B                     	;# 
  1359  019B                     	;# 
  1360  019B                     	;# 
  1361  019B                     	;# 
  1362  019B                     	;# 
  1363  019C                     	;# 
  1364  019C                     	;# 
  1365  019C                     	;# 
  1366  019D                     	;# 
  1367  019D                     	;# 
  1368  019D                     	;# 
  1369  019E                     	;# 
  1370  019E                     	;# 
  1371  019E                     	;# 
  1372  019F                     	;# 
  1373  019F                     	;# 
  1374  019F                     	;# 
  1375  019F                     	;# 
  1376  019F                     	;# 
  1377  020C                     	;# 
  1378  020D                     	;# 
  1379  020E                     	;# 
  1380  0211                     	;# 
  1381  0211                     	;# 
  1382  0212                     	;# 
  1383  0212                     	;# 
  1384  0213                     	;# 
  1385  0213                     	;# 
  1386  0214                     	;# 
  1387  0214                     	;# 
  1388  0215                     	;# 
  1389  0215                     	;# 
  1390  0215                     	;# 
  1391  0215                     	;# 
  1392  0216                     	;# 
  1393  0216                     	;# 
  1394  0217                     	;# 
  1395  0217                     	;# 
  1396  028C                     	;# 
  1397  028D                     	;# 
  1398  028E                     	;# 
  1399  0291                     	;# 
  1400  0291                     	;# 
  1401  0292                     	;# 
  1402  0293                     	;# 
  1403  0294                     	;# 
  1404  0298                     	;# 
  1405  0298                     	;# 
  1406  0299                     	;# 
  1407  029A                     	;# 
  1408  029B                     	;# 
  1409  029E                     	;# 
  1410  030C                     	;# 
  1411  030D                     	;# 
  1412  030E                     	;# 
  1413  038C                     	;# 
  1414  038D                     	;# 
  1415  038E                     	;# 
  1416  0391                     	;# 
  1417  0392                     	;# 
  1418  0393                     	;# 
  1419  0394                     	;# 
  1420  0395                     	;# 
  1421  0396                     	;# 
  1422  0397                     	;# 
  1423  0398                     	;# 
  1424  0399                     	;# 
  1425  040E                     	;# 
  1426  0413                     	;# 
  1427  0413                     	;# 
  1428  0414                     	;# 
  1429  0414                     	;# 
  1430  0415                     	;# 
  1431  0416                     	;# 
  1432  0417                     	;# 
  1433  0418                     	;# 
  1434  041A                     	;# 
  1435  041A                     	;# 
  1436  041B                     	;# 
  1437  041B                     	;# 
  1438  041C                     	;# 
  1439  041D                     	;# 
  1440  041E                     	;# 
  1441  041F                     	;# 
  1442  0493                     	;# 
  1443  0494                     	;# 
  1444  0495                     	;# 
  1445  0496                     	;# 
  1446  049A                     	;# 
  1447  049B                     	;# 
  1448  049C                     	;# 
  1449  049D                     	;# 
  1450  058C                     	;# 
  1451  058C                     	;# 
  1452  058D                     	;# 
  1453  058E                     	;# 
  1454  058E                     	;# 
  1455  058F                     	;# 
  1456  0590                     	;# 
  1457  0590                     	;# 
  1458  0591                     	;# 
  1459  0592                     	;# 
  1460  0592                     	;# 
  1461  0593                     	;# 
  1462  0594                     	;# 
  1463  0594                     	;# 
  1464  0595                     	;# 
  1465  0596                     	;# 
  1466  0596                     	;# 
  1467  0597                     	;# 
  1468  0598                     	;# 
  1469  0599                     	;# 
  1470  059A                     	;# 
  1471  059B                     	;# 
  1472  059B                     	;# 
  1473  059C                     	;# 
  1474  059D                     	;# 
  1475  060C                     	;# 
  1476  060C                     	;# 
  1477  060D                     	;# 
  1478  060E                     	;# 
  1479  060F                     	;# 
  1480  060F                     	;# 
  1481  0610                     	;# 
  1482  0611                     	;# 
  1483  0612                     	;# 
  1484  0613                     	;# 
  1485  0614                     	;# 
  1486  0617                     	;# 
  1487  0618                     	;# 
  1488  0619                     	;# 
  1489  061A                     	;# 
  1490  061B                     	;# 
  1491  061C                     	;# 
  1492  0691                     	;# 
  1493  0692                     	;# 
  1494  0693                     	;# 
  1495  0694                     	;# 
  1496  0695                     	;# 
  1497  0696                     	;# 
  1498  0697                     	;# 
  1499  0699                     	;# 
  1500  069A                     	;# 
  1501  0711                     	;# 
  1502  0712                     	;# 
  1503  0713                     	;# 
  1504  0714                     	;# 
  1505  0715                     	;# 
  1506  0718                     	;# 
  1507  0718                     	;# 
  1508  0719                     	;# 
  1509  071A                     	;# 
  1510  071A                     	;# 
  1511  071B                     	;# 
  1512  071C                     	;# 
  1513  071D                     	;# 
  1514  0791                     	;# 
  1515  0791                     	;# 
  1516  0792                     	;# 
  1517  0793                     	;# 
  1518  0793                     	;# 
  1519  0794                     	;# 
  1520  0795                     	;# 
  1521  0795                     	;# 
  1522  0796                     	;# 
  1523  0797                     	;# 
  1524  0797                     	;# 
  1525  0798                     	;# 
  1526  0799                     	;# 
  1527  079A                     	;# 
  1528  080C                     	;# 
  1529  080C                     	;# 
  1530  080D                     	;# 
  1531  080E                     	;# 
  1532  080E                     	;# 
  1533  080F                     	;# 
  1534  0810                     	;# 
  1535  0810                     	;# 
  1536  0811                     	;# 
  1537  0812                     	;# 
  1538  0812                     	;# 
  1539  0813                     	;# 
  1540  0814                     	;# 
  1541  0815                     	;# 
  1542  0816                     	;# 
  1543  0817                     	;# 
  1544  0818                     	;# 
  1545  0819                     	;# 
  1546  081A                     	;# 
  1547  081A                     	;# 
  1548  081B                     	;# 
  1549  081C                     	;# 
  1550  081C                     	;# 
  1551  081D                     	;# 
  1552  088C                     	;# 
  1553  088D                     	;# 
  1554  088E                     	;# 
  1555  088F                     	;# 
  1556  088F                     	;# 
  1557  0890                     	;# 
  1558  0891                     	;# 
  1559  0892                     	;# 
  1560  0893                     	;# 
  1561  0893                     	;# 
  1562  0894                     	;# 
  1563  0895                     	;# 
  1564  0896                     	;# 
  1565  0897                     	;# 
  1566  0897                     	;# 
  1567  0898                     	;# 
  1568  0899                     	;# 
  1569  0D8C                     	;# 
  1570  0D8C                     	;# 
  1571  0D8D                     	;# 
  1572  0D8E                     	;# 
  1573  0D8F                     	;# 
  1574  0D8F                     	;# 
  1575  0D90                     	;# 
  1576  0D91                     	;# 
  1577  0D92                     	;# 
  1578  0D92                     	;# 
  1579  0D93                     	;# 
  1580  0D94                     	;# 
  1581  0D95                     	;# 
  1582  0D95                     	;# 
  1583  0D96                     	;# 
  1584  0D97                     	;# 
  1585  0D98                     	;# 
  1586  0D99                     	;# 
  1587  0D9A                     	;# 
  1588  0D9B                     	;# 
  1589  0D9C                     	;# 
  1590  0D9D                     	;# 
  1591  0D9E                     	;# 
  1592  0D9E                     	;# 
  1593  0D9F                     	;# 
  1594  0DA0                     	;# 
  1595  0DA1                     	;# 
  1596  0DA1                     	;# 
  1597  0DA2                     	;# 
  1598  0DA3                     	;# 
  1599  0DA4                     	;# 
  1600  0DA4                     	;# 
  1601  0DA5                     	;# 
  1602  0DA6                     	;# 
  1603  0DA7                     	;# 
  1604  0DA7                     	;# 
  1605  0DA8                     	;# 
  1606  0DA9                     	;# 
  1607  0DAA                     	;# 
  1608  0DAB                     	;# 
  1609  0DAC                     	;# 
  1610  0DAD                     	;# 
  1611  0DAE                     	;# 
  1612  0DAF                     	;# 
  1613  0E0F                     	;# 
  1614  0E10                     	;# 
  1615  0E11                     	;# 
  1616  0E12                     	;# 
  1617  0E13                     	;# 
  1618  0E14                     	;# 
  1619  0E15                     	;# 
  1620  0E16                     	;# 
  1621  0E17                     	;# 
  1622  0E18                     	;# 
  1623  0E19                     	;# 
  1624  0E1A                     	;# 
  1625  0E1B                     	;# 
  1626  0E1C                     	;# 
  1627  0E1D                     	;# 
  1628  0E1E                     	;# 
  1629  0E1F                     	;# 
  1630  0E20                     	;# 
  1631  0E21                     	;# 
  1632  0E22                     	;# 
  1633  0E23                     	;# 
  1634  0E24                     	;# 
  1635  0E25                     	;# 
  1636  0E26                     	;# 
  1637  0E27                     	;# 
  1638  0E28                     	;# 
  1639  0E29                     	;# 
  1640  0E2A                     	;# 
  1641  0E2B                     	;# 
  1642  0E2C                     	;# 
  1643  0E2D                     	;# 
  1644  0E2E                     	;# 
  1645  0E90                     	;# 
  1646  0E91                     	;# 
  1647  0E92                     	;# 
  1648  0E94                     	;# 
  1649  0E95                     	;# 
  1650  0E9C                     	;# 
  1651  0E9D                     	;# 
  1652  0E9E                     	;# 
  1653  0E9F                     	;# 
  1654  0EA0                     	;# 
  1655  0EA1                     	;# 
  1656  0EA2                     	;# 
  1657  0EA3                     	;# 
  1658  0EA4                     	;# 
  1659  0EA5                     	;# 
  1660  0EA6                     	;# 
  1661  0EA7                     	;# 
  1662  0F0F                     	;# 
  1663  0F10                     	;# 
  1664  0F11                     	;# 
  1665  0F12                     	;# 
  1666  0F13                     	;# 
  1667  0F14                     	;# 
  1668  0F15                     	;# 
  1669  0F16                     	;# 
  1670  0F17                     	;# 
  1671  0F18                     	;# 
  1672  0F19                     	;# 
  1673  0F1A                     	;# 
  1674  0F1B                     	;# 
  1675  0F1C                     	;# 
  1676  0F1D                     	;# 
  1677  0F1E                     	;# 
  1678  0F1F                     	;# 
  1679  0F20                     	;# 
  1680  0F21                     	;# 
  1681  0F22                     	;# 
  1682  0F23                     	;# 
  1683  0FE4                     	;# 
  1684  0FE5                     	;# 
  1685  0FE6                     	;# 
  1686  0FE7                     	;# 
  1687  0FE8                     	;# 
  1688  0FE9                     	;# 
  1689  0FEA                     	;# 
  1690  0FEB                     	;# 
  1691  0FED                     	;# 
  1692  0FEE                     	;# 
  1693  0FEF                     	;# 
  1694                           
  1695                           	psect	stringtext
  1696  0800                     __pstringtext:	
  1697  0800                     _USIDLOWREV:	
  1698  0800  344C               	retlw	76
  1699  0801  3427               	retlw	39
  1700  0802  3440               	retlw	64
  1701  0803  344C               	retlw	76
  1702  0804  34B0               	retlw	176
  1703  0805  3441               	retlw	65
  1704  0806  344C               	retlw	76
  1705  0807  3430               	retlw	48
  1706  0808  347F               	retlw	127
  1707  0809  344C               	retlw	76
  1708  080A  34B0               	retlw	176
  1709  080B  3400               	retlw	0
  1710  080C  344C               	retlw	76
  1711  080D  3430               	retlw	48
  1712  080E  3401               	retlw	1
  1713  080F  344C               	retlw	76
  1714  0810  3430               	retlw	48
  1715  0811  3402               	retlw	2
  1716  0812  344C               	retlw	76
  1717  0813  3430               	retlw	48
  1718  0814  3404               	retlw	4
  1719  0815  344C               	retlw	76
  1720  0816  3430               	retlw	48
  1721  0817  3408               	retlw	8
  1722  0818  344C               	retlw	76
  1723  0819  3430               	retlw	48
  1724  081A  3410               	retlw	16
  1725  081B  344C               	retlw	76
  1726  081C  3430               	retlw	48
  1727  081D  3420               	retlw	32
  1728  081E  344C               	retlw	76
  1729  081F  3430               	retlw	48
  1730  0820  3440               	retlw	64
  1731  0821  344C               	retlw	76
  1732  0822  3430               	retlw	48
  1733  0823  3454               	retlw	84
  1734  0824                     __end_of_USIDLOWREV:	
  1735  0824                     _USIDHIGHREV:	
  1736  0824  345C               	retlw	92
  1737  0825  3407               	retlw	7
  1738  0826  3440               	retlw	64
  1739  0827  345C               	retlw	92
  1740  0828  3490               	retlw	144
  1741  0829  3441               	retlw	65
  1742  082A  345C               	retlw	92
  1743  082B  3410               	retlw	16
  1744  082C  347F               	retlw	127
  1745  082D  345C               	retlw	92
  1746  082E  3490               	retlw	144
  1747  082F  3400               	retlw	0
  1748  0830  345C               	retlw	92
  1749  0831  3410               	retlw	16
  1750  0832  3401               	retlw	1
  1751  0833  345C               	retlw	92
  1752  0834  3410               	retlw	16
  1753  0835  3402               	retlw	2
  1754  0836  345C               	retlw	92
  1755  0837  3410               	retlw	16
  1756  0838  3404               	retlw	4
  1757  0839  345C               	retlw	92
  1758  083A  3410               	retlw	16
  1759  083B  3408               	retlw	8
  1760  083C  345C               	retlw	92
  1761  083D  3410               	retlw	16
  1762  083E  3410               	retlw	16
  1763  083F  345C               	retlw	92
  1764  0840  3410               	retlw	16
  1765  0841  3420               	retlw	32
  1766  0842  345C               	retlw	92
  1767  0843  3410               	retlw	16
  1768  0844  3440               	retlw	64
  1769  0845                     __end_of_USIDHIGHREV:	
  1770  0845                     _DacOutput:	
  1771  0845  342B               	retlw	43
  1772  0846  3448               	retlw	72
  1773  0847  3456               	retlw	86
  1774  0848  3464               	retlw	100
  1775  0849                     __end_of_DacOutput:	
  1776  000E                     _PORTC	set	14
  1777  0095                     _OPTION_REGbits	set	149
  1778  0099                     _OSCCON	set	153
  1779  009A                     _OSCSTAT	set	154
  1780  0098                     _OSCTUNE	set	152
  1781  008C                     _TRISA	set	140
  1782  008D                     _TRISB	set	141
  1783  008E                     _TRISC	set	142
  1784  0118                     _DAC1CON0	set	280
  1785  0119                     _DAC1CON1	set	281
  1786  010C                     _LATA	set	268
  1787  010D                     _LATB	set	269
  1788  010E                     _LATC	set	270
  1789  0861                     _LATA1	set	2145
  1790  0862                     _LATA2	set	2146
  1791  0864                     _LATA4	set	2148
  1792  086C                     _LATB4	set	2156
  1793  086D                     _LATB5	set	2157
  1794  086E                     _LATB6	set	2158
  1795  086F                     _LATB7	set	2159
  1796  018C                     _ANSELA	set	396
  1797  018D                     _ANSELB	set	397
  1798  018E                     _ANSELC	set	398
  1799  020D                     _WPUB	set	525
  1800  020E                     _WPUC	set	526
  1801                           
  1802                           ; #config settings
  1803  0000                     
  1804                           	psect	cinit
  1805  07F9                     start_initialization:	
  1806  07F9                     __initialization:	
  1807                           
  1808                           ; Clear objects allocated to COMMON
  1809  07F9  01FB               	clrf	__pbssCOMMON& (0+127)
  1810  07FA  01FC               	clrf	(__pbssCOMMON+1)& (0+127)
  1811  07FB  01FD               	clrf	(__pbssCOMMON+2)& (0+127)
  1812                           
  1813                           ; Clear objects allocated to BANK0
  1814  07FC  01A0               	clrf	__pbssBANK0& (0+127)
  1815  07FD                     end_of_initialization:	
  1816                           ;End of C runtime variable initialization code
  1817                           
  1818  07FD                     __end_of__initialization:	
  1819  07FD  0020               	movlb	0
  1820  07FE  3186  2EAB         	ljmp	_main	;jump to C main() function
  1821                           
  1822                           	psect	bssCOMMON
  1823  007B                     __pbssCOMMON:	
  1824  007B                     _Byte2:	
  1825  007B                     	ds	1
  1826  007C                     _Byte3:	
  1827  007C                     	ds	1
  1828  007D                     _readDummy:	
  1829  007D                     	ds	1
  1830                           
  1831                           	psect	bssBANK0
  1832  0020                     __pbssBANK0:	
  1833  0020                     _Byte1:	
  1834  0020                     	ds	1
  1835                           
  1836                           	psect	cstackCOMMON
  1837  0070                     __pcstackCOMMON:	
  1838  0070                     ?_OSCILLATOR_Initialize:	
  1839  0070                     ??_OSCILLATOR_Initialize:	
  1840                           ; 0 bytes @ 0x0
  1841                           
  1842  0070                     ?_DAC1_Initialize:	
  1843                           ; 0 bytes @ 0x0
  1844                           
  1845  0070                     ??_DAC1_Initialize:	
  1846                           ; 0 bytes @ 0x0
  1847                           
  1848  0070                     ?_DAC1_SetOutput:	
  1849                           ; 0 bytes @ 0x0
  1850                           
  1851  0070                     ??_DAC1_SetOutput:	
  1852                           ; 0 bytes @ 0x0
  1853                           
  1854  0070                     ?_PIN_MANAGER_Initialize:	
  1855                           ; 0 bytes @ 0x0
  1856                           
  1857  0070                     ??_PIN_MANAGER_Initialize:	
  1858                           ; 0 bytes @ 0x0
  1859                           
  1860  0070                     ?_SYSTEM_Initialize:	
  1861                           ; 0 bytes @ 0x0
  1862                           
  1863  0070                     ??_SYSTEM_Initialize:	
  1864                           ; 0 bytes @ 0x0
  1865                           
  1866  0070                     ?_MIPITRANSFER1:	
  1867                           ; 0 bytes @ 0x0
  1868                           
  1869  0070                     ??_MIPITRANSFER1:	
  1870                           ; 0 bytes @ 0x0
  1871                           
  1872  0070                     ?_MIPITRANSFER2:	
  1873                           ; 0 bytes @ 0x0
  1874                           
  1875  0070                     ??_MIPITRANSFER2:	
  1876                           ; 0 bytes @ 0x0
  1877                           
  1878  0070                     ?_main:	
  1879                           ; 0 bytes @ 0x0
  1880                           
  1881  0070                     DAC1_SetOutput@inputData:	
  1882                           ; 0 bytes @ 0x0
  1883                           
  1884                           
  1885                           ; 1 bytes @ 0x0
  1886  0070                     	ds	3
  1887  0073                     MIPITRANSFER1@k:	
  1888  0073                     MIPITRANSFER2@k:	
  1889                           ; 1 bytes @ 0x3
  1890                           
  1891                           
  1892                           ; 1 bytes @ 0x3
  1893  0073                     	ds	1
  1894  0074                     MIPITRANSFER1@j:	
  1895  0074                     MIPITRANSFER2@j:	
  1896                           ; 1 bytes @ 0x4
  1897                           
  1898                           
  1899                           ; 1 bytes @ 0x4
  1900  0074                     	ds	1
  1901  0075                     MIPITRANSFER1@j_110:	
  1902  0075                     MIPITRANSFER2@j_118:	
  1903                           ; 1 bytes @ 0x5
  1904                           
  1905                           
  1906                           ; 1 bytes @ 0x5
  1907  0075                     	ds	1
  1908  0076                     MIPITRANSFER1@j_111:	
  1909  0076                     MIPITRANSFER2@j_119:	
  1910                           ; 1 bytes @ 0x6
  1911                           
  1912                           
  1913                           ; 1 bytes @ 0x6
  1914  0076                     	ds	1
  1915  0077                     MIPITRANSFER1@j_113:	
  1916  0077                     MIPITRANSFER2@j_121:	
  1917                           ; 1 bytes @ 0x7
  1918                           
  1919                           
  1920                           ; 1 bytes @ 0x7
  1921  0077                     	ds	1
  1922  0078                     MIPITRANSFER1@i:	
  1923  0078                     MIPITRANSFER2@i:	
  1924                           ; 1 bytes @ 0x8
  1925                           
  1926                           
  1927                           ; 1 bytes @ 0x8
  1928  0078                     	ds	1
  1929  0079                     MIPITRANSFER1@i_112:	
  1930  0079                     MIPITRANSFER2@i_120:	
  1931                           ; 1 bytes @ 0x9
  1932                           
  1933                           
  1934                           ; 1 bytes @ 0x9
  1935  0079                     	ds	1
  1936  007A                     ??_main:	
  1937                           
  1938                           ; 0 bytes @ 0xA
  1939  007A                     	ds	1
  1940                           
  1941                           	psect	maintext
  1942  06AB                     __pmaintext:	
  1943 ;;
  1944 ;;Main: autosize = 0, tempsize = 1, incstack = 0, save=0
  1945 ;;
  1946 ;; *************** function _main *****************
  1947 ;; Defined at:
  1948 ;;		line 181 in file "main.c"
  1949 ;; Parameters:    Size  Location     Type
  1950 ;;		None
  1951 ;; Auto vars:     Size  Location     Type
  1952 ;;		None
  1953 ;; Return value:  Size  Location     Type
  1954 ;;		None               void
  1955 ;; Registers used:
  1956 ;;		wreg, fsr0l, fsr0h, status,2, status,0, pclath, cstack
  1957 ;; Tracked objects:
  1958 ;;		On entry : B1F/0
  1959 ;;		On exit  : 0/0
  1960 ;;		Unchanged: 0/0
  1961 ;; Data sizes:     COMMON   BANK0   BANK1   BANK2   BANK3   BANK4   BANK5   BANK6
  1962 ;;      Params:         0       0       0       0       0       0       0       0
  1963 ;;      Locals:         0       0       0       0       0       0       0       0
  1964 ;;      Temps:          1       0       0       0       0       0       0       0
  1965 ;;      Totals:         1       0       0       0       0       0       0       0
  1966 ;;Total ram usage:        1 bytes
  1967 ;; Hardware stack levels required when called:    2
  1968 ;; This function calls:
  1969 ;;		_DAC1_Initialize
  1970 ;;		_DAC1_SetOutput
  1971 ;;		_MIPITRANSFER1
  1972 ;;		_MIPITRANSFER2
  1973 ;;		_PIN_MANAGER_Initialize
  1974 ;;		_SYSTEM_Initialize
  1975 ;; This function is called by:
  1976 ;;		Startup code after reset
  1977 ;; This function uses a non-reentrant model
  1978 ;;
  1979                           
  1980                           
  1981                           ;psect for function _main
  1982  06AB                     _main:	
  1983                           
  1984                           ;main.c: 183: SYSTEM_Initialize();
  1985                           
  1986                           ;incstack = 0
  1987                           ; Regs used in _main: [wreg-fsr0h+status,2+status,0+pclath+cstack]
  1988  06AB  3184  24EC  3186   	fcall	_SYSTEM_Initialize
  1989                           
  1990                           ;main.c: 184: DAC1_Initialize();
  1991  06AE  3184  24E1  3186   	fcall	_DAC1_Initialize
  1992                           
  1993                           ;main.c: 185: PIN_MANAGER_Initialize();
  1994  06B1  3184  24F5  3186   	fcall	_PIN_MANAGER_Initialize
  1995                           
  1996                           ;main.c: 187: DAC1_SetOutput(0);
  1997  06B4  3000               	movlw	0
  1998  06B5  3184  24DC  3186   	fcall	_DAC1_SetOutput
  1999                           
  2000                           ;main.c: 188: do { LATA1 = 0; } while(0);
  2001  06B8  0022               	movlb	2	; select bank2
  2002  06B9  108C               	bcf	12,1	;volatile
  2003                           
  2004                           ;main.c: 189: do { LATA4 = 0; } while(0);
  2005  06BA  120C               	bcf	12,4	;volatile
  2006                           
  2007                           ;main.c: 190: do { LATA2 = 0; } while(0);
  2008  06BB  110C               	bcf	12,2	;volatile
  2009                           
  2010                           ;main.c: 191: do { LATB4 = 0; } while(0);
  2011  06BC  120D               	bcf	13,4	;volatile
  2012  06BD                     l1140:	
  2013                           ;main.c: 193: while ((PORTC & 0xC0) != 0xC0){}
  2014                           
  2015                           ;main.c: 192: while (1) {
  2016                           
  2017  06BD  30C0               	movlw	192
  2018  06BE  0020               	movlb	0	; select bank0
  2019  06BF  050E               	andwf	14,w	;volatile
  2020  06C0  00FA               	movwf	??_main
  2021  06C1  30C0               	movlw	192
  2022  06C2  067A               	xorwf	??_main,w
  2023  06C3  1D03               	btfss	3,2
  2024  06C4  2EBD               	goto	l1140
  2025                           
  2026                           ;main.c: 194: Byte1 = PORTC;
  2027  06C5  080E               	movf	14,w	;volatile
  2028  06C6  00FA               	movwf	??_main
  2029  06C7  087A               	movf	??_main,w
  2030  06C8  00A0               	movwf	_Byte1
  2031  06C9                     l1144:	
  2032                           ;main.c: 195: while ((PORTC & 0xC0) != 0x40){}
  2033                           
  2034  06C9  30C0               	movlw	192
  2035  06CA  050E               	andwf	14,w	;volatile
  2036  06CB  00FA               	movwf	??_main
  2037  06CC  3040               	movlw	64
  2038  06CD  067A               	xorwf	??_main,w
  2039  06CE  1D03               	btfss	3,2
  2040  06CF  2EC9               	goto	l1144
  2041                           
  2042                           ;main.c: 196: Byte2 = PORTC & 0x3F;
  2043  06D0  080E               	movf	14,w	;volatile
  2044  06D1  393F               	andlw	63
  2045  06D2  00FA               	movwf	??_main
  2046  06D3  087A               	movf	??_main,w
  2047  06D4  00FB               	movwf	_Byte2
  2048  06D5                     l1148:	
  2049                           ;main.c: 197: while ((PORTC & 0xC0) != 0x80){}
  2050                           
  2051  06D5  30C0               	movlw	192
  2052  06D6  050E               	andwf	14,w	;volatile
  2053  06D7  00FA               	movwf	??_main
  2054  06D8  3080               	movlw	128
  2055  06D9  067A               	xorwf	??_main,w
  2056  06DA  1D03               	btfss	3,2
  2057  06DB  2ED5               	goto	l1148
  2058                           
  2059                           ;main.c: 198: Byte3 = PORTC & 0x3F;
  2060  06DC  080E               	movf	14,w	;volatile
  2061  06DD  393F               	andlw	63
  2062  06DE  00FA               	movwf	??_main
  2063  06DF  087A               	movf	??_main,w
  2064  06E0  00FC               	movwf	_Byte3
  2065                           
  2066                           ;main.c: 199: if (((Byte1 & 0x10) == 0x10) && ((Byte1 & 0x0C) != 0x00))
  2067  06E1  1E20               	btfss	_Byte1,4
  2068  06E2  2EF1               	goto	l1158
  2069  06E3  0820               	movf	_Byte1,w
  2070  06E4  390C               	andlw	12
  2071  06E5  1903               	btfsc	3,2
  2072  06E6  2EF1               	goto	l1158
  2073                           
  2074                           ;main.c: 200: DAC1_SetOutput(DacOutput[(Byte1 & 0x03)]);
  2075  06E7  0820               	movf	_Byte1,w
  2076  06E8  3903               	andlw	3
  2077  06E9  3E45               	addlw	low (_DacOutput| (0+32768))
  2078  06EA  0084               	movwf	4
  2079  06EB  3088               	movlw	high (_DacOutput| (0+32768))
  2080  06EC  1803               	skipnc
  2081  06ED  3E01               	addlw	1
  2082  06EE  0085               	movwf	5
  2083  06EF  0800               	movf	0,w	;code access
  2084  06F0  2EF2               	goto	L1
  2085  06F1                     l1158:	
  2086                           
  2087                           ;main.c: 201: else
  2088                           ;main.c: 202: DAC1_SetOutput(0);
  2089  06F1  3000               	movlw	0
  2090  06F2                     L1:	
  2091  06F2  3184  24DC  3186   	fcall	_DAC1_SetOutput
  2092                           
  2093                           ;main.c: 204: if ((Byte1 & 0x3C) == 0x20){
  2094  06F5  303C               	movlw	60
  2095  06F6  0020               	movlb	0	; select bank0
  2096  06F7  0520               	andwf	_Byte1,w
  2097  06F8  00FA               	movwf	??_main
  2098  06F9  3020               	movlw	32
  2099  06FA  067A               	xorwf	??_main,w
  2100  06FB  1903               	btfsc	3,2
  2101  06FC  2F41               	goto	l209
  2102                           
  2103                           ;main.c: 207: }else{ if (((Byte1 & 0x30) != 0x00) && ((Byte1 & 0x0C) != 0x00)){
  2104                           
  2105                           ;main.c: 206: do { LATB4 = 1; } while(0);
  2106                           
  2107                           ;main.c: 205: do { LATA2 = 0; } while(0);
  2108  06FD  0020               	movlb	0	; select bank0
  2109  06FE  0820               	movf	_Byte1,w
  2110  06FF  3930               	andlw	48
  2111  0700  1903               	btfsc	3,2
  2112  0701  2F45               	goto	l214
  2113  0702  0820               	movf	_Byte1,w
  2114  0703  390C               	andlw	12
  2115  0704  1903               	btfsc	3,2
  2116  0705  2F45               	goto	l214
  2117                           
  2118                           ;main.c: 208: if ((Byte2 == 5) || (Byte2 == 8) || (Byte2 == 12) || (Byte2 == 13) || (Byt
      +                          e2 == 20) || (Byte2 == 26) || (Byte2 == 29) || (Byte3 == 5) || (Byte3 == 8) || (Byte3 ==
      +                           12) || (Byte3 == 13) || (Byte3 == 20) || (Byte3 == 26) || (Byte3 == 29)){
  2119  0706  3005               	movlw	5
  2120  0707  067B               	xorwf	_Byte2,w
  2121  0708  1903               	btfsc	3,2
  2122  0709  2F3E               	goto	l204
  2123  070A  3008               	movlw	8
  2124  070B  067B               	xorwf	_Byte2,w
  2125  070C  1903               	btfsc	3,2
  2126  070D  2F3E               	goto	l204
  2127  070E  300C               	movlw	12
  2128  070F  067B               	xorwf	_Byte2,w
  2129  0710  1903               	btfsc	3,2
  2130  0711  2F3E               	goto	l204
  2131  0712  300D               	movlw	13
  2132  0713  067B               	xorwf	_Byte2,w
  2133  0714  1903               	btfsc	3,2
  2134  0715  2F3E               	goto	l204
  2135  0716  3014               	movlw	20
  2136  0717  067B               	xorwf	_Byte2,w
  2137  0718  1903               	btfsc	3,2
  2138  0719  2F3E               	goto	l204
  2139  071A  301A               	movlw	26
  2140  071B  067B               	xorwf	_Byte2,w
  2141  071C  1903               	btfsc	3,2
  2142  071D  2F3E               	goto	l204
  2143  071E  301D               	movlw	29
  2144  071F  067B               	xorwf	_Byte2,w
  2145  0720  1903               	btfsc	3,2
  2146  0721  2F3E               	goto	l204
  2147  0722  3005               	movlw	5
  2148  0723  067C               	xorwf	_Byte3,w
  2149  0724  1903               	btfsc	3,2
  2150  0725  2F3E               	goto	l204
  2151  0726  3008               	movlw	8
  2152  0727  067C               	xorwf	_Byte3,w
  2153  0728  1903               	btfsc	3,2
  2154  0729  2F3E               	goto	l204
  2155  072A  300C               	movlw	12
  2156  072B  067C               	xorwf	_Byte3,w
  2157  072C  1903               	btfsc	3,2
  2158  072D  2F3E               	goto	l204
  2159  072E  300D               	movlw	13
  2160  072F  067C               	xorwf	_Byte3,w
  2161  0730  1903               	btfsc	3,2
  2162  0731  2F3E               	goto	l204
  2163  0732  3014               	movlw	20
  2164  0733  067C               	xorwf	_Byte3,w
  2165  0734  1903               	btfsc	3,2
  2166  0735  2F3E               	goto	l204
  2167  0736  301A               	movlw	26
  2168  0737  067C               	xorwf	_Byte3,w
  2169  0738  1903               	btfsc	3,2
  2170  0739  2F3E               	goto	l204
  2171  073A  301D               	movlw	29
  2172  073B  067C               	xorwf	_Byte3,w
  2173  073C  1D03               	btfss	3,2
  2174  073D  2F41               	goto	l209
  2175  073E                     l204:	
  2176                           ;main.c: 209: do { LATA2 = 1; } while(0);
  2177                           
  2178  073E  0022               	movlb	2	; select bank2
  2179  073F  150C               	bsf	12,2	;volatile
  2180                           
  2181                           ;main.c: 210: do { LATB4 = 1; } while(0);
  2182  0740  2F43               	goto	l211
  2183  0741                     l209:	
  2184                           ;main.c: 212: do { LATA2 = 0; } while(0);
  2185                           
  2186                           ;main.c: 211: }else{
  2187                           
  2188  0741  0022               	movlb	2	; select bank2
  2189  0742  110C               	bcf	12,2	;volatile
  2190  0743                     l211:	
  2191                           ;main.c: 213: do { LATB4 = 1; } while(0);
  2192                           
  2193  0743  160D               	bsf	13,4	;volatile
  2194                           
  2195                           ;main.c: 214: }
  2196                           ;main.c: 215: }else{
  2197  0744  2F48               	goto	l1194
  2198  0745                     l214:	
  2199                           ;main.c: 216: do { LATA2 = 0; } while(0);
  2200                           
  2201  0745  0022               	movlb	2	; select bank2
  2202  0746  110C               	bcf	12,2	;volatile
  2203                           
  2204                           ;main.c: 217: do { LATB4 = 0; } while(0);
  2205  0747  120D               	bcf	13,4	;volatile
  2206  0748                     l1194:	
  2207                           
  2208                           ;main.c: 218: }
  2209                           ;main.c: 219: }
  2210                           ;main.c: 221: if (Byte2 == 3 && Byte3 == 7){
  2211  0748  3003               	movlw	3
  2212  0749  067B               	xorwf	_Byte2,w
  2213  074A  1D03               	btfss	3,2
  2214  074B  2F53               	goto	l1198
  2215  074C  3007               	movlw	7
  2216  074D  067C               	xorwf	_Byte3,w
  2217  074E  1D03               	btfss	3,2
  2218  074F  2F53               	goto	l1198
  2219                           
  2220                           ;main.c: 222: do { LATA1 = 0; } while(0);
  2221  0750  108C               	bcf	12,1	;volatile
  2222                           
  2223                           ;main.c: 223: do { LATA4 = 1; } while(0);
  2224  0751  160C               	bsf	12,4	;volatile
  2225                           
  2226                           ;main.c: 224: }
  2227  0752  2F89               	goto	l1226
  2228  0753                     l1198:	
  2229                           
  2230                           ;main.c: 225: else{ if ((Byte2 == 7 && Byte3 == 0) || (Byte2 == 30 && Byte3 == 0) || (By
      +                          te2 == 41 && Byte3 == 0) || (Byte2 == 5 && Byte3 == 30) || (Byte2 == 7 && Byte3 == 20) |
      +                          | (Byte2 == 12 && Byte3 == 30) || (Byte2 == 41 && Byte3 == 41)){
  2231  0753  3007               	movlw	7
  2232  0754  067B               	xorwf	_Byte2,w
  2233  0755  1903               	btfsc	3,2
  2234  0756  087C               	movf	_Byte3,w
  2235  0757  1903               	btfsc	3,2
  2236  0758  2F85               	goto	l239
  2237  0759  301E               	movlw	30
  2238  075A  067B               	xorwf	_Byte2,w
  2239  075B  1903               	btfsc	3,2
  2240  075C  087C               	movf	_Byte3,w
  2241  075D  1903               	btfsc	3,2
  2242  075E  2F85               	goto	l239
  2243  075F  3029               	movlw	41
  2244  0760  067B               	xorwf	_Byte2,w
  2245  0761  1903               	btfsc	3,2
  2246  0762  087C               	movf	_Byte3,w
  2247  0763  1903               	btfsc	3,2
  2248  0764  2F85               	goto	l239
  2249  0765  3005               	movlw	5
  2250  0766  067B               	xorwf	_Byte2,w
  2251  0767  1D03               	btfss	3,2
  2252  0768  2F6D               	goto	l1214
  2253  0769  301E               	movlw	30
  2254  076A  067C               	xorwf	_Byte3,w
  2255  076B  1903               	btfsc	3,2
  2256  076C  2F85               	goto	l239
  2257  076D                     l1214:	
  2258  076D  3007               	movlw	7
  2259  076E  067B               	xorwf	_Byte2,w
  2260  076F  1D03               	btfss	3,2
  2261  0770  2F75               	goto	l1218
  2262  0771  3014               	movlw	20
  2263  0772  067C               	xorwf	_Byte3,w
  2264  0773  1903               	btfsc	3,2
  2265  0774  2F85               	goto	l239
  2266  0775                     l1218:	
  2267  0775  300C               	movlw	12
  2268  0776  067B               	xorwf	_Byte2,w
  2269  0777  1D03               	btfss	3,2
  2270  0778  2F7D               	goto	l1222
  2271  0779  301E               	movlw	30
  2272  077A  067C               	xorwf	_Byte3,w
  2273  077B  1903               	btfsc	3,2
  2274  077C  2F85               	goto	l239
  2275  077D                     l1222:	
  2276  077D  3029               	movlw	41
  2277  077E  067B               	xorwf	_Byte2,w
  2278  077F  1D03               	btfss	3,2
  2279  0780  2F87               	goto	l244
  2280  0781  3029               	movlw	41
  2281  0782  067C               	xorwf	_Byte3,w
  2282  0783  1D03               	btfss	3,2
  2283  0784  2F87               	goto	l244
  2284  0785                     l239:	
  2285                           ;main.c: 226: do { LATA1 = 1; } while(0);
  2286                           
  2287  0785  148C               	bsf	12,1	;volatile
  2288  0786  2F88               	goto	l246
  2289  0787                     l244:	
  2290                           ;main.c: 229: else{
  2291                           ;main.c: 230: do { LATA1 = 0; } while(0);
  2292                           
  2293                           ;main.c: 228: }
  2294                           
  2295                           ;main.c: 227: do { LATA4 = 0; } while(0);
  2296                           
  2297  0787  108C               	bcf	12,1	;volatile
  2298  0788                     l246:	
  2299                           ;main.c: 231: do { LATA4 = 0; } while(0);
  2300                           
  2301  0788  120C               	bcf	12,4	;volatile
  2302  0789                     l1226:	
  2303                           
  2304                           ;main.c: 232: }
  2305                           ;main.c: 233: }
  2306                           ;main.c: 237: if ((Byte2 == 5) && (Byte3 == 0)){
  2307  0789  3005               	movlw	5
  2308  078A  067B               	xorwf	_Byte2,w
  2309  078B  1D03               	btfss	3,2
  2310  078C  2F99               	goto	l1232
  2311  078D  087C               	movf	_Byte3,w
  2312  078E  1D03               	btfss	3,2
  2313  078F  2F99               	goto	l1232
  2314                           
  2315                           ;main.c: 238: MIPITRANSFER1 (33);
  2316  0790  3021               	movlw	33
  2317  0791  3185  2511  3186   	fcall	_MIPITRANSFER1
  2318                           
  2319                           ;main.c: 239: MIPITRANSFER2 (3);
  2320  0794  3003               	movlw	3
  2321  0795  3185  25DE  3186   	fcall	_MIPITRANSFER2
  2322                           
  2323                           ;main.c: 240: }else{ if ((Byte2 == 5) || (Byte3 == 5)){
  2324  0798  2EBD               	goto	l1140
  2325  0799                     l1232:	
  2326  0799  3005               	movlw	5
  2327  079A  067B               	xorwf	_Byte2,w
  2328  079B  1903               	btfsc	3,2
  2329  079C  2FA1               	goto	l1236
  2330  079D  3005               	movlw	5
  2331  079E  067C               	xorwf	_Byte3,w
  2332  079F  1D03               	btfss	3,2
  2333  07A0  2FA6               	goto	l1238
  2334  07A1                     l1236:	
  2335                           
  2336                           ;main.c: 241: MIPITRANSFER1 (3);
  2337  07A1  3003               	movlw	3
  2338  07A2  3185  2511  3186   	fcall	_MIPITRANSFER1
  2339                           
  2340                           ;main.c: 242: }else{ if ((Byte2 == 8) || (Byte3 == 8)){
  2341  07A5  2EBD               	goto	l1140
  2342  07A6                     l1238:	
  2343  07A6  3008               	movlw	8
  2344  07A7  067B               	xorwf	_Byte2,w
  2345  07A8  1903               	btfsc	3,2
  2346  07A9  2FAE               	goto	l1242
  2347  07AA  3008               	movlw	8
  2348  07AB  067C               	xorwf	_Byte3,w
  2349  07AC  1D03               	btfss	3,2
  2350  07AD  2FB3               	goto	l1244
  2351  07AE                     l1242:	
  2352                           
  2353                           ;main.c: 243: MIPITRANSFER1 (6);
  2354  07AE  3006               	movlw	6
  2355  07AF  3185  2511  3186   	fcall	_MIPITRANSFER1
  2356                           
  2357                           ;main.c: 244: }else{ if ((Byte2 == 12) || (Byte3 == 12)){
  2358  07B2  2EBD               	goto	l1140
  2359  07B3                     l1244:	
  2360  07B3  300C               	movlw	12
  2361  07B4  067B               	xorwf	_Byte2,w
  2362  07B5  1903               	btfsc	3,2
  2363  07B6  2FBB               	goto	l1248
  2364  07B7  300C               	movlw	12
  2365  07B8  067C               	xorwf	_Byte3,w
  2366  07B9  1D03               	btfss	3,2
  2367  07BA  2FC0               	goto	l1250
  2368  07BB                     l1248:	
  2369                           
  2370                           ;main.c: 245: MIPITRANSFER1 (9);
  2371  07BB  3009               	movlw	9
  2372  07BC  3185  2511  3186   	fcall	_MIPITRANSFER1
  2373                           
  2374                           ;main.c: 246: }else{ if ((Byte2 == 13) || (Byte3 == 13)){
  2375  07BF  2EBD               	goto	l1140
  2376  07C0                     l1250:	
  2377  07C0  300D               	movlw	13
  2378  07C1  067B               	xorwf	_Byte2,w
  2379  07C2  1903               	btfsc	3,2
  2380  07C3  2FC8               	goto	l1254
  2381  07C4  300D               	movlw	13
  2382  07C5  067C               	xorwf	_Byte3,w
  2383  07C6  1D03               	btfss	3,2
  2384  07C7  2FCD               	goto	l1256
  2385  07C8                     l1254:	
  2386                           
  2387                           ;main.c: 247: MIPITRANSFER1 (12);
  2388  07C8  300C               	movlw	12
  2389  07C9  3185  2511  3186   	fcall	_MIPITRANSFER1
  2390                           
  2391                           ;main.c: 248: }else{ if ((Byte2 == 20) || (Byte3 == 20)){
  2392  07CC  2EBD               	goto	l1140
  2393  07CD                     l1256:	
  2394  07CD  3014               	movlw	20
  2395  07CE  067B               	xorwf	_Byte2,w
  2396  07CF  1903               	btfsc	3,2
  2397  07D0  2FD5               	goto	l1260
  2398  07D1  3014               	movlw	20
  2399  07D2  067C               	xorwf	_Byte3,w
  2400  07D3  1D03               	btfss	3,2
  2401  07D4  2FDA               	goto	l1262
  2402  07D5                     l1260:	
  2403                           
  2404                           ;main.c: 249: MIPITRANSFER1 (15);
  2405  07D5  300F               	movlw	15
  2406  07D6  3185  2511  3186   	fcall	_MIPITRANSFER1
  2407                           
  2408                           ;main.c: 250: }else{ if ((Byte2 == 26) || (Byte3 == 26)){
  2409  07D9  2EBD               	goto	l1140
  2410  07DA                     l1262:	
  2411  07DA  301A               	movlw	26
  2412  07DB  067B               	xorwf	_Byte2,w
  2413  07DC  1903               	btfsc	3,2
  2414  07DD  2FE2               	goto	l1266
  2415  07DE  301A               	movlw	26
  2416  07DF  067C               	xorwf	_Byte3,w
  2417  07E0  1D03               	btfss	3,2
  2418  07E1  2FE7               	goto	l1268
  2419  07E2                     l1266:	
  2420                           
  2421                           ;main.c: 251: MIPITRANSFER1 (18);
  2422  07E2  3012               	movlw	18
  2423  07E3  3185  2511  3186   	fcall	_MIPITRANSFER1
  2424                           
  2425                           ;main.c: 252: }else{ if ((Byte2 == 29) || (Byte3 == 29)){
  2426  07E6  2EBD               	goto	l1140
  2427  07E7                     l1268:	
  2428  07E7  301D               	movlw	29
  2429  07E8  067B               	xorwf	_Byte2,w
  2430  07E9  1903               	btfsc	3,2
  2431  07EA  2FEF               	goto	l1272
  2432  07EB  301D               	movlw	29
  2433  07EC  067C               	xorwf	_Byte3,w
  2434  07ED  1D03               	btfss	3,2
  2435  07EE  2FF4               	goto	l1274
  2436  07EF                     l1272:	
  2437                           
  2438                           ;main.c: 253: MIPITRANSFER1 (21);
  2439  07EF  3015               	movlw	21
  2440  07F0  3185  2511  3186   	fcall	_MIPITRANSFER1
  2441                           
  2442                           ;main.c: 254: }else{
  2443  07F3  2EBD               	goto	l1140
  2444  07F4                     l1274:	
  2445                           
  2446                           ;main.c: 255: MIPITRANSFER1 (30);
  2447  07F4  301E               	movlw	30
  2448  07F5  3185  2511  3186   	fcall	_MIPITRANSFER1
  2449  07F8  2EBD               	goto	l1140
  2450  07F9                     __end_of_main:	
  2451                           
  2452                           	psect	text1
  2453  04EC                     __ptext1:	
  2454 ;; *************** function _SYSTEM_Initialize *****************
  2455 ;; Defined at:
  2456 ;;		line 75 in file "mcc_generated_files/mcc.c"
  2457 ;; Parameters:    Size  Location     Type
  2458 ;;		None
  2459 ;; Auto vars:     Size  Location     Type
  2460 ;;		None
  2461 ;; Return value:  Size  Location     Type
  2462 ;;		None               void
  2463 ;; Registers used:
  2464 ;;		wreg, status,2, status,0, pclath, cstack
  2465 ;; Tracked objects:
  2466 ;;		On entry : 0/0
  2467 ;;		On exit  : 0/0
  2468 ;;		Unchanged: 0/0
  2469 ;; Data sizes:     COMMON   BANK0   BANK1   BANK2   BANK3   BANK4   BANK5   BANK6
  2470 ;;      Params:         0       0       0       0       0       0       0       0
  2471 ;;      Locals:         0       0       0       0       0       0       0       0
  2472 ;;      Temps:          0       0       0       0       0       0       0       0
  2473 ;;      Totals:         0       0       0       0       0       0       0       0
  2474 ;;Total ram usage:        0 bytes
  2475 ;; Hardware stack levels used:    1
  2476 ;; Hardware stack levels required when called:    1
  2477 ;; This function calls:
  2478 ;;		_DAC1_Initialize
  2479 ;;		_OSCILLATOR_Initialize
  2480 ;;		_PIN_MANAGER_Initialize
  2481 ;; This function is called by:
  2482 ;;		_main
  2483 ;; This function uses a non-reentrant model
  2484 ;;
  2485                           
  2486                           
  2487                           ;psect for function _SYSTEM_Initialize
  2488  04EC                     _SYSTEM_Initialize:	
  2489                           
  2490                           ;mcc.c: 76: OSCILLATOR_Initialize();
  2491                           
  2492                           ;incstack = 0
  2493                           ; Regs used in _SYSTEM_Initialize: [wreg+status,2+status,0+pclath+cstack]
  2494  04EC  3184  24E6  3184   	fcall	_OSCILLATOR_Initialize
  2495                           
  2496                           ;mcc.c: 77: PIN_MANAGER_Initialize();
  2497  04EF  3184  24F5  3184   	fcall	_PIN_MANAGER_Initialize
  2498                           
  2499                           ;mcc.c: 78: DAC1_Initialize();
  2500  04F2  3184  24E1         	fcall	_DAC1_Initialize
  2501  04F4  0008               	return
  2502  04F5                     __end_of_SYSTEM_Initialize:	
  2503                           
  2504                           	psect	text2
  2505  04F5                     __ptext2:	
  2506 ;; *************** function _PIN_MANAGER_Initialize *****************
  2507 ;; Defined at:
  2508 ;;		line 50 in file "mcc_generated_files/pin_manager.c"
  2509 ;; Parameters:    Size  Location     Type
  2510 ;;		None
  2511 ;; Auto vars:     Size  Location     Type
  2512 ;;		None
  2513 ;; Return value:  Size  Location     Type
  2514 ;;		None               void
  2515 ;; Registers used:
  2516 ;;		wreg, status,2
  2517 ;; Tracked objects:
  2518 ;;		On entry : 0/0
  2519 ;;		On exit  : 0/0
  2520 ;;		Unchanged: 0/0
  2521 ;; Data sizes:     COMMON   BANK0   BANK1   BANK2   BANK3   BANK4   BANK5   BANK6
  2522 ;;      Params:         0       0       0       0       0       0       0       0
  2523 ;;      Locals:         0       0       0       0       0       0       0       0
  2524 ;;      Temps:          0       0       0       0       0       0       0       0
  2525 ;;      Totals:         0       0       0       0       0       0       0       0
  2526 ;;Total ram usage:        0 bytes
  2527 ;; Hardware stack levels used:    1
  2528 ;; This function calls:
  2529 ;;		Nothing
  2530 ;; This function is called by:
  2531 ;;		_SYSTEM_Initialize
  2532 ;;		_main
  2533 ;; This function uses a non-reentrant model
  2534 ;;
  2535                           
  2536                           
  2537                           ;psect for function _PIN_MANAGER_Initialize
  2538  04F5                     _PIN_MANAGER_Initialize:	
  2539                           
  2540                           ;pin_manager.c: 51: LATA = 0x00;
  2541                           
  2542                           ;incstack = 0
  2543                           ; Regs used in _PIN_MANAGER_Initialize: [wreg+status,2]
  2544  04F5  0022               	movlb	2	; select bank2
  2545  04F6  018C               	clrf	12	;volatile
  2546                           
  2547                           ;pin_manager.c: 52: TRISA = 0x28;
  2548  04F7  3028               	movlw	40
  2549  04F8  0021               	movlb	1	; select bank1
  2550  04F9  008C               	movwf	12	;volatile
  2551                           
  2552                           ;pin_manager.c: 53: ANSELA = 0x01;
  2553  04FA  3001               	movlw	1
  2554  04FB  0023               	movlb	3	; select bank3
  2555  04FC  008C               	movwf	12	;volatile
  2556                           
  2557                           ;pin_manager.c: 55: LATB = 0x00;
  2558  04FD  0022               	movlb	2	; select bank2
  2559  04FE  018D               	clrf	13	;volatile
  2560                           
  2561                           ;pin_manager.c: 56: TRISB = 0x00;
  2562  04FF  0021               	movlb	1	; select bank1
  2563  0500  018D               	clrf	13	;volatile
  2564                           
  2565                           ;pin_manager.c: 57: ANSELB = 0x00;
  2566  0501  0023               	movlb	3	; select bank3
  2567  0502  018D               	clrf	13	;volatile
  2568                           
  2569                           ;pin_manager.c: 58: WPUB = 0x00;
  2570  0503  0024               	movlb	4	; select bank4
  2571  0504  018D               	clrf	13	;volatile
  2572                           
  2573                           ;pin_manager.c: 60: LATC = 0x00;
  2574  0505  0022               	movlb	2	; select bank2
  2575  0506  018E               	clrf	14	;volatile
  2576                           
  2577                           ;pin_manager.c: 61: TRISC = 0xFF;
  2578  0507  30FF               	movlw	255
  2579  0508  0021               	movlb	1	; select bank1
  2580  0509  008E               	movwf	14	;volatile
  2581                           
  2582                           ;pin_manager.c: 62: ANSELC = 0x00;
  2583  050A  0023               	movlb	3	; select bank3
  2584  050B  018E               	clrf	14	;volatile
  2585                           
  2586                           ;pin_manager.c: 63: WPUC = 0x00;
  2587  050C  0024               	movlb	4	; select bank4
  2588  050D  018E               	clrf	14	;volatile
  2589                           
  2590                           ;pin_manager.c: 65: OPTION_REGbits.nWPUEN = 0x01;
  2591  050E  0021               	movlb	1	; select bank1
  2592  050F  1795               	bsf	21,7	;volatile
  2593  0510  0008               	return
  2594  0511                     __end_of_PIN_MANAGER_Initialize:	
  2595                           
  2596                           	psect	text3
  2597  04E6                     __ptext3:	
  2598 ;; *************** function _OSCILLATOR_Initialize *****************
  2599 ;; Defined at:
  2600 ;;		line 81 in file "mcc_generated_files/mcc.c"
  2601 ;; Parameters:    Size  Location     Type
  2602 ;;		None
  2603 ;; Auto vars:     Size  Location     Type
  2604 ;;		None
  2605 ;; Return value:  Size  Location     Type
  2606 ;;		None               void
  2607 ;; Registers used:
  2608 ;;		wreg, status,2
  2609 ;; Tracked objects:
  2610 ;;		On entry : 0/0
  2611 ;;		On exit  : 0/0
  2612 ;;		Unchanged: 0/0
  2613 ;; Data sizes:     COMMON   BANK0   BANK1   BANK2   BANK3   BANK4   BANK5   BANK6
  2614 ;;      Params:         0       0       0       0       0       0       0       0
  2615 ;;      Locals:         0       0       0       0       0       0       0       0
  2616 ;;      Temps:          0       0       0       0       0       0       0       0
  2617 ;;      Totals:         0       0       0       0       0       0       0       0
  2618 ;;Total ram usage:        0 bytes
  2619 ;; Hardware stack levels used:    1
  2620 ;; This function calls:
  2621 ;;		Nothing
  2622 ;; This function is called by:
  2623 ;;		_SYSTEM_Initialize
  2624 ;; This function uses a non-reentrant model
  2625 ;;
  2626                           
  2627                           
  2628                           ;psect for function _OSCILLATOR_Initialize
  2629  04E6                     _OSCILLATOR_Initialize:	
  2630                           
  2631                           ;mcc.c: 83: OSCCON = 0x7A;
  2632                           
  2633                           ;incstack = 0
  2634                           ; Regs used in _OSCILLATOR_Initialize: [wreg+status,2]
  2635  04E6  307A               	movlw	122
  2636  04E7  0021               	movlb	1	; select bank1
  2637  04E8  0099               	movwf	25	;volatile
  2638                           
  2639                           ;mcc.c: 85: OSCSTAT = 0x00;
  2640  04E9  019A               	clrf	26	;volatile
  2641                           
  2642                           ;mcc.c: 87: OSCTUNE = 0x00;
  2643  04EA  0198               	clrf	24	;volatile
  2644  04EB  0008               	return
  2645  04EC                     __end_of_OSCILLATOR_Initialize:	
  2646                           
  2647                           	psect	text4
  2648  04E1                     __ptext4:	
  2649 ;; *************** function _DAC1_Initialize *****************
  2650 ;; Defined at:
  2651 ;;		line 58 in file "mcc_generated_files/dac1.c"
  2652 ;; Parameters:    Size  Location     Type
  2653 ;;		None
  2654 ;; Auto vars:     Size  Location     Type
  2655 ;;		None
  2656 ;; Return value:  Size  Location     Type
  2657 ;;		None               void
  2658 ;; Registers used:
  2659 ;;		wreg, status,2
  2660 ;; Tracked objects:
  2661 ;;		On entry : 0/0
  2662 ;;		On exit  : 0/0
  2663 ;;		Unchanged: 0/0
  2664 ;; Data sizes:     COMMON   BANK0   BANK1   BANK2   BANK3   BANK4   BANK5   BANK6
  2665 ;;      Params:         0       0       0       0       0       0       0       0
  2666 ;;      Locals:         0       0       0       0       0       0       0       0
  2667 ;;      Temps:          0       0       0       0       0       0       0       0
  2668 ;;      Totals:         0       0       0       0       0       0       0       0
  2669 ;;Total ram usage:        0 bytes
  2670 ;; Hardware stack levels used:    1
  2671 ;; This function calls:
  2672 ;;		Nothing
  2673 ;; This function is called by:
  2674 ;;		_SYSTEM_Initialize
  2675 ;;		_main
  2676 ;; This function uses a non-reentrant model
  2677 ;;
  2678                           
  2679                           
  2680                           ;psect for function _DAC1_Initialize
  2681  04E1                     _DAC1_Initialize:	
  2682                           
  2683                           ;dac1.c: 60: DAC1CON0 = 0xA0;
  2684                           
  2685                           ;incstack = 0
  2686                           ; Regs used in _DAC1_Initialize: [wreg+status,2]
  2687  04E1  30A0               	movlw	160
  2688  04E2  0022               	movlb	2	; select bank2
  2689  04E3  0098               	movwf	24	;volatile
  2690                           
  2691                           ;dac1.c: 62: DAC1CON1 = 0x00;
  2692  04E4  0199               	clrf	25	;volatile
  2693  04E5  0008               	return
  2694  04E6                     __end_of_DAC1_Initialize:	
  2695                           
  2696                           	psect	text5
  2697  05DE                     __ptext5:	
  2698 ;; *************** function _MIPITRANSFER2 *****************
  2699 ;; Defined at:
  2700 ;;		line 132 in file "main.c"
  2701 ;; Parameters:    Size  Location     Type
  2702 ;;  k               1    wreg     unsigned char 
  2703 ;; Auto vars:     Size  Location     Type
  2704 ;;  k               1    3[COMMON] unsigned char 
  2705 ;;  j               1    7[COMMON] unsigned char 
  2706 ;;  j               1    5[COMMON] unsigned char 
  2707 ;;  i               1    9[COMMON] unsigned char 
  2708 ;;  j               1    6[COMMON] unsigned char 
  2709 ;;  i               1    8[COMMON] unsigned char 
  2710 ;;  j               1    4[COMMON] unsigned char 
  2711 ;; Return value:  Size  Location     Type
  2712 ;;		None               void
  2713 ;; Registers used:
  2714 ;;		wreg, fsr0l, fsr0h, status,2, status,0, pclath
  2715 ;; Tracked objects:
  2716 ;;		On entry : 0/0
  2717 ;;		On exit  : 0/0
  2718 ;;		Unchanged: 0/0
  2719 ;; Data sizes:     COMMON   BANK0   BANK1   BANK2   BANK3   BANK4   BANK5   BANK6
  2720 ;;      Params:         0       0       0       0       0       0       0       0
  2721 ;;      Locals:         7       0       0       0       0       0       0       0
  2722 ;;      Temps:          3       0       0       0       0       0       0       0
  2723 ;;      Totals:        10       0       0       0       0       0       0       0
  2724 ;;Total ram usage:       10 bytes
  2725 ;; Hardware stack levels used:    1
  2726 ;; This function calls:
  2727 ;;		Nothing
  2728 ;; This function is called by:
  2729 ;;		_main
  2730 ;; This function uses a non-reentrant model
  2731 ;;
  2732                           
  2733                           
  2734                           ;psect for function _MIPITRANSFER2
  2735  05DE                     _MIPITRANSFER2:	
  2736                           
  2737                           ;incstack = 0
  2738                           ; Regs used in _MIPITRANSFER2: [wreg-fsr0h+status,2+status,0+pclath]
  2739                           ;MIPITRANSFER2@k stored from wreg
  2740  05DE  00F3               	movwf	MIPITRANSFER2@k
  2741                           
  2742                           ;main.c: 133: do { LATB5 = 1; } while(0);
  2743  05DF  0022               	movlb	2	; select bank2
  2744  05E0  168D               	bsf	13,5	;volatile
  2745  05E1  0000               	nop	;# 
  2746                           
  2747                           ;main.c: 135: do { LATB5 = 0; } while(0);
  2748  05E2  0022               	movlb	2	; select bank2
  2749  05E3  128D               	bcf	13,5	;volatile
  2750                           
  2751                           ;main.c: 136: readDummy = USIDHIGHREV[0];
  2752  05E4  3024               	movlw	low (_USIDHIGHREV| (0+32768))
  2753  05E5  0084               	movwf	4
  2754  05E6  3088               	movlw	high (_USIDHIGHREV| (0+32768))
  2755  05E7  0085               	movwf	5
  2756  05E8  0800               	movf	0,w	;code access
  2757  05E9  00F0               	movwf	??_MIPITRANSFER2
  2758  05EA  0870               	movf	??_MIPITRANSFER2,w
  2759  05EB  00FD               	movwf	_readDummy
  2760                           
  2761                           ;main.c: 137: readDummy = readDummy >> 1;
  2762  05EC  367D               	lsrf	_readDummy,w
  2763  05ED  00F0               	movwf	??_MIPITRANSFER2
  2764  05EE  0870               	movf	??_MIPITRANSFER2,w
  2765  05EF  00FD               	movwf	_readDummy
  2766                           
  2767                           ;main.c: 138: for (uint8_t j=0; j<7; j++){
  2768  05F0  01F4               	clrf	MIPITRANSFER2@j
  2769  05F1  3007               	movlw	7
  2770  05F2  0274               	subwf	MIPITRANSFER2@j,w
  2771  05F3  1803               	btfsc	3,0
  2772  05F4  2E0C               	goto	l140
  2773  05F5                     l141:	
  2774                           ;main.c: 139: do { LATB6 = 1; } while(0);
  2775                           
  2776  05F5  170D               	bsf	13,6	;volatile
  2777                           
  2778                           ;main.c: 140: LATB5 = readDummy & 0x01;
  2779  05F6  1C7D               	btfss	_readDummy,0
  2780  05F7  2DFB               	goto	u1160
  2781  05F8  0022               	movlb	2	; select bank2
  2782  05F9  168D               	bsf	13,5	;volatile
  2783  05FA  2DFD               	goto	u1174
  2784  05FB                     u1160:	
  2785  05FB  0022               	movlb	2	; select bank2
  2786  05FC  128D               	bcf	13,5	;volatile
  2787  05FD                     u1174:	
  2788  05FD  0000               	nop	;# 
  2789                           
  2790                           ;main.c: 142: do { LATB6 = 0; } while(0);
  2791  05FE  0022               	movlb	2	; select bank2
  2792  05FF  130D               	bcf	13,6	;volatile
  2793                           
  2794                           ;main.c: 143: readDummy = readDummy >> 1;
  2795  0600  367D               	lsrf	_readDummy,w
  2796  0601  00F0               	movwf	??_MIPITRANSFER2
  2797  0602  0870               	movf	??_MIPITRANSFER2,w
  2798  0603  00FD               	movwf	_readDummy
  2799  0604  3001               	movlw	1
  2800  0605  00F0               	movwf	??_MIPITRANSFER2
  2801  0606  0870               	movf	??_MIPITRANSFER2,w
  2802  0607  07F4               	addwf	MIPITRANSFER2@j,f
  2803  0608  3007               	movlw	7
  2804  0609  0274               	subwf	MIPITRANSFER2@j,w
  2805  060A  1C03               	skipc
  2806  060B  2DF5               	goto	l141
  2807  060C                     l140:	
  2808                           
  2809                           ;main.c: 144: }
  2810                           ;main.c: 145: for (uint8_t i=1; i<3; i++){
  2811  060C  01F8               	clrf	MIPITRANSFER2@i
  2812  060D  0AF8               	incf	MIPITRANSFER2@i,f
  2813  060E  3003               	movlw	3
  2814  060F  0278               	subwf	MIPITRANSFER2@i,w
  2815  0610  1803               	btfsc	3,0
  2816  0611  2E42               	goto	l146
  2817  0612                     l1080:	
  2818                           
  2819                           ;main.c: 146: readDummy = USIDHIGHREV[i];
  2820  0612  0878               	movf	MIPITRANSFER2@i,w
  2821  0613  3E24               	addlw	low (_USIDHIGHREV| (0+32768))
  2822  0614  0084               	movwf	4
  2823  0615  3088               	movlw	high (_USIDHIGHREV| (0+32768))
  2824  0616  1803               	skipnc
  2825  0617  3E01               	addlw	1
  2826  0618  0085               	movwf	5
  2827  0619  0800               	movf	0,w	;code access
  2828  061A  00F0               	movwf	??_MIPITRANSFER2
  2829  061B  0870               	movf	??_MIPITRANSFER2,w
  2830  061C  00FD               	movwf	_readDummy
  2831                           
  2832                           ;main.c: 147: for (uint8_t j=0; j<8; j++){
  2833  061D  01F5               	clrf	MIPITRANSFER2@j_118
  2834  061E  3008               	movlw	8
  2835  061F  0275               	subwf	MIPITRANSFER2@j_118,w
  2836  0620  1803               	btfsc	3,0
  2837  0621  2E3A               	goto	l1092
  2838  0622                     l149:	
  2839                           ;main.c: 148: do { LATB6 = 1; } while(0);
  2840                           
  2841  0622  0022               	movlb	2	; select bank2
  2842  0623  170D               	bsf	13,6	;volatile
  2843                           
  2844                           ;main.c: 149: LATB5 = readDummy & 0x01;
  2845  0624  1C7D               	btfss	_readDummy,0
  2846  0625  2E29               	goto	u1210
  2847  0626  0022               	movlb	2	; select bank2
  2848  0627  168D               	bsf	13,5	;volatile
  2849  0628  2E2B               	goto	u1224
  2850  0629                     u1210:	
  2851  0629  0022               	movlb	2	; select bank2
  2852  062A  128D               	bcf	13,5	;volatile
  2853  062B                     u1224:	
  2854  062B  0000               	nop	;# 
  2855                           
  2856                           ;main.c: 151: do { LATB6 = 0; } while(0);
  2857  062C  0022               	movlb	2	; select bank2
  2858  062D  130D               	bcf	13,6	;volatile
  2859                           
  2860                           ;main.c: 152: readDummy = readDummy >> 1;
  2861  062E  367D               	lsrf	_readDummy,w
  2862  062F  00F0               	movwf	??_MIPITRANSFER2
  2863  0630  0870               	movf	??_MIPITRANSFER2,w
  2864  0631  00FD               	movwf	_readDummy
  2865  0632  3001               	movlw	1
  2866  0633  00F0               	movwf	??_MIPITRANSFER2
  2867  0634  0870               	movf	??_MIPITRANSFER2,w
  2868  0635  07F5               	addwf	MIPITRANSFER2@j_118,f
  2869  0636  3008               	movlw	8
  2870  0637  0275               	subwf	MIPITRANSFER2@j_118,w
  2871  0638  1C03               	skipc
  2872  0639  2E22               	goto	l149
  2873  063A                     l1092:	
  2874  063A  3001               	movlw	1
  2875  063B  00F0               	movwf	??_MIPITRANSFER2
  2876  063C  0870               	movf	??_MIPITRANSFER2,w
  2877  063D  07F8               	addwf	MIPITRANSFER2@i,f
  2878  063E  3003               	movlw	3
  2879  063F  0278               	subwf	MIPITRANSFER2@i,w
  2880  0640  1C03               	skipc
  2881  0641  2E12               	goto	l1080
  2882  0642                     l146:	
  2883  0642  0000               	nop	;# 
  2884  0643  0000               	nop	;# 
  2885                           
  2886                           ;main.c: 157: do { LATB5 = 1; } while(0);
  2887  0644  0022               	movlb	2	; select bank2
  2888  0645  168D               	bsf	13,5	;volatile
  2889  0646  0000               	nop	;# 
  2890                           
  2891                           ;main.c: 159: do { LATB5 = 0; } while(0);
  2892  0647  0022               	movlb	2	; select bank2
  2893  0648  128D               	bcf	13,5	;volatile
  2894                           
  2895                           ;main.c: 160: readDummy = USIDHIGHREV[k];
  2896  0649  0873               	movf	MIPITRANSFER2@k,w
  2897  064A  3E24               	addlw	low (_USIDHIGHREV| (0+32768))
  2898  064B  0084               	movwf	4
  2899  064C  3088               	movlw	high (_USIDHIGHREV| (0+32768))
  2900  064D  1803               	skipnc
  2901  064E  3E01               	addlw	1
  2902  064F  0085               	movwf	5
  2903  0650  0800               	movf	0,w	;code access
  2904  0651  00F0               	movwf	??_MIPITRANSFER2
  2905  0652  0870               	movf	??_MIPITRANSFER2,w
  2906  0653  00FD               	movwf	_readDummy
  2907                           
  2908                           ;main.c: 161: readDummy = readDummy >> 1;
  2909  0654  367D               	lsrf	_readDummy,w
  2910  0655  00F0               	movwf	??_MIPITRANSFER2
  2911  0656  0870               	movf	??_MIPITRANSFER2,w
  2912  0657  00FD               	movwf	_readDummy
  2913                           
  2914                           ;main.c: 162: for (uint8_t j=0; j<7; j++){
  2915  0658  01F6               	clrf	MIPITRANSFER2@j_119
  2916  0659  3007               	movlw	7
  2917  065A  0276               	subwf	MIPITRANSFER2@j_119,w
  2918  065B  1803               	btfsc	3,0
  2919  065C  2E74               	goto	l158
  2920  065D                     l159:	
  2921                           ;main.c: 163: do { LATB6 = 1; } while(0);
  2922                           
  2923  065D  170D               	bsf	13,6	;volatile
  2924                           
  2925                           ;main.c: 164: LATB5 = readDummy & 0x01;
  2926  065E  1C7D               	btfss	_readDummy,0
  2927  065F  2E63               	goto	u1260
  2928  0660  0022               	movlb	2	; select bank2
  2929  0661  168D               	bsf	13,5	;volatile
  2930  0662  2E65               	goto	u1274
  2931  0663                     u1260:	
  2932  0663  0022               	movlb	2	; select bank2
  2933  0664  128D               	bcf	13,5	;volatile
  2934  0665                     u1274:	
  2935  0665  0000               	nop	;# 
  2936                           
  2937                           ;main.c: 166: do { LATB6 = 0; } while(0);
  2938  0666  0022               	movlb	2	; select bank2
  2939  0667  130D               	bcf	13,6	;volatile
  2940                           
  2941                           ;main.c: 167: readDummy = readDummy >> 1;
  2942  0668  367D               	lsrf	_readDummy,w
  2943  0669  00F0               	movwf	??_MIPITRANSFER2
  2944  066A  0870               	movf	??_MIPITRANSFER2,w
  2945  066B  00FD               	movwf	_readDummy
  2946  066C  3001               	movlw	1
  2947  066D  00F0               	movwf	??_MIPITRANSFER2
  2948  066E  0870               	movf	??_MIPITRANSFER2,w
  2949  066F  07F6               	addwf	MIPITRANSFER2@j_119,f
  2950  0670  3007               	movlw	7
  2951  0671  0276               	subwf	MIPITRANSFER2@j_119,w
  2952  0672  1C03               	skipc
  2953  0673  2E5D               	goto	l159
  2954  0674                     l158:	
  2955                           
  2956                           ;main.c: 168: }
  2957                           ;main.c: 169: for (uint8_t i=1; i<3; i++){
  2958  0674  01F9               	clrf	MIPITRANSFER2@i_120
  2959  0675  0AF9               	incf	MIPITRANSFER2@i_120,f
  2960  0676                     L2:	
  2961  0676  3003               	movlw	3
  2962  0677  0279               	subwf	MIPITRANSFER2@i_120,w
  2963  0678  1803               	btfsc	3,0
  2964  0679  0008               	return
  2965                           
  2966                           ;main.c: 170: readDummy = USIDHIGHREV[(k+i)];
  2967  067A  0873               	movf	MIPITRANSFER2@k,w
  2968  067B  0779               	addwf	MIPITRANSFER2@i_120,w
  2969  067C  00F0               	movwf	??_MIPITRANSFER2
  2970  067D  01F1               	clrf	??_MIPITRANSFER2+1
  2971  067E  0DF1               	rlf	??_MIPITRANSFER2+1,f
  2972  067F  3024               	movlw	low (_USIDHIGHREV| (0+32768))
  2973  0680  0770               	addwf	??_MIPITRANSFER2,w
  2974  0681  0084               	movwf	4
  2975  0682  3088               	movlw	high (_USIDHIGHREV| (0+32768))
  2976  0683  3D71               	addwfc	??_MIPITRANSFER2+1,w
  2977  0684  0085               	movwf	5
  2978  0685  0800               	movf	0,w	;code access
  2979  0686  00F2               	movwf	??_MIPITRANSFER2+2
  2980  0687  0872               	movf	??_MIPITRANSFER2+2,w
  2981  0688  00FD               	movwf	_readDummy
  2982                           
  2983                           ;main.c: 171: for (uint8_t j=0; j<8; j++){
  2984  0689  01F7               	clrf	MIPITRANSFER2@j_121
  2985  068A  3008               	movlw	8
  2986  068B  0277               	subwf	MIPITRANSFER2@j_121,w
  2987  068C  1803               	btfsc	3,0
  2988  068D  2EA6               	goto	l1126
  2989  068E                     l167:	
  2990                           ;main.c: 172: do { LATB6 = 1; } while(0);
  2991                           
  2992  068E  0022               	movlb	2	; select bank2
  2993  068F  170D               	bsf	13,6	;volatile
  2994                           
  2995                           ;main.c: 173: LATB5 = readDummy & 0x01;
  2996  0690  1C7D               	btfss	_readDummy,0
  2997  0691  2E95               	goto	u1310
  2998  0692  0022               	movlb	2	; select bank2
  2999  0693  168D               	bsf	13,5	;volatile
  3000  0694  2E97               	goto	u1324
  3001  0695                     u1310:	
  3002  0695  0022               	movlb	2	; select bank2
  3003  0696  128D               	bcf	13,5	;volatile
  3004  0697                     u1324:	
  3005  0697  0000               	nop	;# 
  3006                           
  3007                           ;main.c: 175: do { LATB6 = 0; } while(0);
  3008  0698  0022               	movlb	2	; select bank2
  3009  0699  130D               	bcf	13,6	;volatile
  3010                           
  3011                           ;main.c: 176: readDummy = readDummy >> 1;
  3012  069A  367D               	lsrf	_readDummy,w
  3013  069B  00F0               	movwf	??_MIPITRANSFER2
  3014  069C  0870               	movf	??_MIPITRANSFER2,w
  3015  069D  00FD               	movwf	_readDummy
  3016  069E  3001               	movlw	1
  3017  069F  00F0               	movwf	??_MIPITRANSFER2
  3018  06A0  0870               	movf	??_MIPITRANSFER2,w
  3019  06A1  07F7               	addwf	MIPITRANSFER2@j_121,f
  3020  06A2  3008               	movlw	8
  3021  06A3  0277               	subwf	MIPITRANSFER2@j_121,w
  3022  06A4  1C03               	skipc
  3023  06A5  2E8E               	goto	l167
  3024  06A6                     l1126:	
  3025  06A6  3001               	movlw	1
  3026  06A7  00F0               	movwf	??_MIPITRANSFER2
  3027  06A8  0870               	movf	??_MIPITRANSFER2,w
  3028  06A9  07F9               	addwf	MIPITRANSFER2@i_120,f
  3029  06AA  2E76               	goto	L2
  3030  06AB                     __end_of_MIPITRANSFER2:	
  3031                           
  3032                           	psect	text6
  3033  0511                     __ptext6:	
  3034 ;; *************** function _MIPITRANSFER1 *****************
  3035 ;; Defined at:
  3036 ;;		line 83 in file "main.c"
  3037 ;; Parameters:    Size  Location     Type
  3038 ;;  k               1    wreg     unsigned char 
  3039 ;; Auto vars:     Size  Location     Type
  3040 ;;  k               1    3[COMMON] unsigned char 
  3041 ;;  j               1    7[COMMON] unsigned char 
  3042 ;;  j               1    5[COMMON] unsigned char 
  3043 ;;  i               1    9[COMMON] unsigned char 
  3044 ;;  j               1    6[COMMON] unsigned char 
  3045 ;;  i               1    8[COMMON] unsigned char 
  3046 ;;  j               1    4[COMMON] unsigned char 
  3047 ;; Return value:  Size  Location     Type
  3048 ;;		None               void
  3049 ;; Registers used:
  3050 ;;		wreg, fsr0l, fsr0h, status,2, status,0, pclath
  3051 ;; Tracked objects:
  3052 ;;		On entry : 0/0
  3053 ;;		On exit  : 0/0
  3054 ;;		Unchanged: 0/0
  3055 ;; Data sizes:     COMMON   BANK0   BANK1   BANK2   BANK3   BANK4   BANK5   BANK6
  3056 ;;      Params:         0       0       0       0       0       0       0       0
  3057 ;;      Locals:         7       0       0       0       0       0       0       0
  3058 ;;      Temps:          3       0       0       0       0       0       0       0
  3059 ;;      Totals:        10       0       0       0       0       0       0       0
  3060 ;;Total ram usage:       10 bytes
  3061 ;; Hardware stack levels used:    1
  3062 ;; This function calls:
  3063 ;;		Nothing
  3064 ;; This function is called by:
  3065 ;;		_main
  3066 ;; This function uses a non-reentrant model
  3067 ;;
  3068                           
  3069                           
  3070                           ;psect for function _MIPITRANSFER1
  3071  0511                     _MIPITRANSFER1:	
  3072                           
  3073                           ;incstack = 0
  3074                           ; Regs used in _MIPITRANSFER1: [wreg-fsr0h+status,2+status,0+pclath]
  3075                           ;MIPITRANSFER1@k stored from wreg
  3076  0511  00F3               	movwf	MIPITRANSFER1@k
  3077                           
  3078                           ;main.c: 84: do { LATB7 = 1; } while(0);
  3079  0512  0022               	movlb	2	; select bank2
  3080  0513  178D               	bsf	13,7	;volatile
  3081  0514  0000               	nop	;# 
  3082                           
  3083                           ;main.c: 86: do { LATB7 = 0; } while(0);
  3084  0515  0022               	movlb	2	; select bank2
  3085  0516  138D               	bcf	13,7	;volatile
  3086                           
  3087                           ;main.c: 87: readDummy = USIDLOWREV[0];
  3088  0517  3000               	movlw	low (_USIDLOWREV| (0+32768))
  3089  0518  0084               	movwf	4
  3090  0519  3088               	movlw	high (_USIDLOWREV| (0+32768))
  3091  051A  0085               	movwf	5
  3092  051B  0800               	movf	0,w	;code access
  3093  051C  00F0               	movwf	??_MIPITRANSFER1
  3094  051D  0870               	movf	??_MIPITRANSFER1,w
  3095  051E  00FD               	movwf	_readDummy
  3096                           
  3097                           ;main.c: 88: readDummy = readDummy >> 1;
  3098  051F  367D               	lsrf	_readDummy,w
  3099  0520  00F0               	movwf	??_MIPITRANSFER1
  3100  0521  0870               	movf	??_MIPITRANSFER1,w
  3101  0522  00FD               	movwf	_readDummy
  3102                           
  3103                           ;main.c: 89: for (uint8_t j=0; j<7; j++){
  3104  0523  01F4               	clrf	MIPITRANSFER1@j
  3105  0524  3007               	movlw	7
  3106  0525  0274               	subwf	MIPITRANSFER1@j,w
  3107  0526  1803               	btfsc	3,0
  3108  0527  2D3F               	goto	l101
  3109  0528                     l102:	
  3110                           ;main.c: 90: do { LATB6 = 1; } while(0);
  3111                           
  3112  0528  170D               	bsf	13,6	;volatile
  3113                           
  3114                           ;main.c: 91: LATB7 = readDummy & 0x01;
  3115  0529  1C7D               	btfss	_readDummy,0
  3116  052A  2D2E               	goto	u960
  3117  052B  0022               	movlb	2	; select bank2
  3118  052C  178D               	bsf	13,7	;volatile
  3119  052D  2D30               	goto	u974
  3120  052E                     u960:	
  3121  052E  0022               	movlb	2	; select bank2
  3122  052F  138D               	bcf	13,7	;volatile
  3123  0530                     u974:	
  3124  0530  0000               	nop	;# 
  3125                           
  3126                           ;main.c: 93: do { LATB6 = 0; } while(0);
  3127  0531  0022               	movlb	2	; select bank2
  3128  0532  130D               	bcf	13,6	;volatile
  3129                           
  3130                           ;main.c: 94: readDummy = readDummy >> 1;
  3131  0533  367D               	lsrf	_readDummy,w
  3132  0534  00F0               	movwf	??_MIPITRANSFER1
  3133  0535  0870               	movf	??_MIPITRANSFER1,w
  3134  0536  00FD               	movwf	_readDummy
  3135  0537  3001               	movlw	1
  3136  0538  00F0               	movwf	??_MIPITRANSFER1
  3137  0539  0870               	movf	??_MIPITRANSFER1,w
  3138  053A  07F4               	addwf	MIPITRANSFER1@j,f
  3139  053B  3007               	movlw	7
  3140  053C  0274               	subwf	MIPITRANSFER1@j,w
  3141  053D  1C03               	skipc
  3142  053E  2D28               	goto	l102
  3143  053F                     l101:	
  3144                           
  3145                           ;main.c: 95: }
  3146                           ;main.c: 96: for (uint8_t i=1; i<3; i++){
  3147  053F  01F8               	clrf	MIPITRANSFER1@i
  3148  0540  0AF8               	incf	MIPITRANSFER1@i,f
  3149  0541  3003               	movlw	3
  3150  0542  0278               	subwf	MIPITRANSFER1@i,w
  3151  0543  1803               	btfsc	3,0
  3152  0544  2D75               	goto	l107
  3153  0545                     l1012:	
  3154                           
  3155                           ;main.c: 97: readDummy = USIDLOWREV[i];
  3156  0545  0878               	movf	MIPITRANSFER1@i,w
  3157  0546  3E00               	addlw	low (_USIDLOWREV| (0+32768))
  3158  0547  0084               	movwf	4
  3159  0548  3088               	movlw	high (_USIDLOWREV| (0+32768))
  3160  0549  1803               	skipnc
  3161  054A  3E01               	addlw	1
  3162  054B  0085               	movwf	5
  3163  054C  0800               	movf	0,w	;code access
  3164  054D  00F0               	movwf	??_MIPITRANSFER1
  3165  054E  0870               	movf	??_MIPITRANSFER1,w
  3166  054F  00FD               	movwf	_readDummy
  3167                           
  3168                           ;main.c: 98: for (uint8_t j=0; j<8; j++){
  3169  0550  01F5               	clrf	MIPITRANSFER1@j_110
  3170  0551  3008               	movlw	8
  3171  0552  0275               	subwf	MIPITRANSFER1@j_110,w
  3172  0553  1803               	btfsc	3,0
  3173  0554  2D6D               	goto	l1024
  3174  0555                     l110:	
  3175                           ;main.c: 99: do { LATB6 = 1; } while(0);
  3176                           
  3177  0555  0022               	movlb	2	; select bank2
  3178  0556  170D               	bsf	13,6	;volatile
  3179                           
  3180                           ;main.c: 100: LATB7 = readDummy & 0x01;
  3181  0557  1C7D               	btfss	_readDummy,0
  3182  0558  2D5C               	goto	u1010
  3183  0559  0022               	movlb	2	; select bank2
  3184  055A  178D               	bsf	13,7	;volatile
  3185  055B  2D5E               	goto	u1024
  3186  055C                     u1010:	
  3187  055C  0022               	movlb	2	; select bank2
  3188  055D  138D               	bcf	13,7	;volatile
  3189  055E                     u1024:	
  3190  055E  0000               	nop	;# 
  3191                           
  3192                           ;main.c: 102: do { LATB6 = 0; } while(0);
  3193  055F  0022               	movlb	2	; select bank2
  3194  0560  130D               	bcf	13,6	;volatile
  3195                           
  3196                           ;main.c: 103: readDummy = readDummy >> 1;
  3197  0561  367D               	lsrf	_readDummy,w
  3198  0562  00F0               	movwf	??_MIPITRANSFER1
  3199  0563  0870               	movf	??_MIPITRANSFER1,w
  3200  0564  00FD               	movwf	_readDummy
  3201  0565  3001               	movlw	1
  3202  0566  00F0               	movwf	??_MIPITRANSFER1
  3203  0567  0870               	movf	??_MIPITRANSFER1,w
  3204  0568  07F5               	addwf	MIPITRANSFER1@j_110,f
  3205  0569  3008               	movlw	8
  3206  056A  0275               	subwf	MIPITRANSFER1@j_110,w
  3207  056B  1C03               	skipc
  3208  056C  2D55               	goto	l110
  3209  056D                     l1024:	
  3210  056D  3001               	movlw	1
  3211  056E  00F0               	movwf	??_MIPITRANSFER1
  3212  056F  0870               	movf	??_MIPITRANSFER1,w
  3213  0570  07F8               	addwf	MIPITRANSFER1@i,f
  3214  0571  3003               	movlw	3
  3215  0572  0278               	subwf	MIPITRANSFER1@i,w
  3216  0573  1C03               	skipc
  3217  0574  2D45               	goto	l1012
  3218  0575                     l107:	
  3219  0575  0000               	nop	;# 
  3220  0576  0000               	nop	;# 
  3221                           
  3222                           ;main.c: 108: do { LATB7 = 1; } while(0);
  3223  0577  0022               	movlb	2	; select bank2
  3224  0578  178D               	bsf	13,7	;volatile
  3225  0579  0000               	nop	;# 
  3226                           
  3227                           ;main.c: 110: do { LATB7 = 0; } while(0);
  3228  057A  0022               	movlb	2	; select bank2
  3229  057B  138D               	bcf	13,7	;volatile
  3230                           
  3231                           ;main.c: 111: readDummy = USIDLOWREV[k];
  3232  057C  0873               	movf	MIPITRANSFER1@k,w
  3233  057D  3E00               	addlw	low (_USIDLOWREV| (0+32768))
  3234  057E  0084               	movwf	4
  3235  057F  3088               	movlw	high (_USIDLOWREV| (0+32768))
  3236  0580  1803               	skipnc
  3237  0581  3E01               	addlw	1
  3238  0582  0085               	movwf	5
  3239  0583  0800               	movf	0,w	;code access
  3240  0584  00F0               	movwf	??_MIPITRANSFER1
  3241  0585  0870               	movf	??_MIPITRANSFER1,w
  3242  0586  00FD               	movwf	_readDummy
  3243                           
  3244                           ;main.c: 112: readDummy = readDummy >> 1;
  3245  0587  367D               	lsrf	_readDummy,w
  3246  0588  00F0               	movwf	??_MIPITRANSFER1
  3247  0589  0870               	movf	??_MIPITRANSFER1,w
  3248  058A  00FD               	movwf	_readDummy
  3249                           
  3250                           ;main.c: 113: for (uint8_t j=0; j<7; j++){
  3251  058B  01F6               	clrf	MIPITRANSFER1@j_111
  3252  058C  3007               	movlw	7
  3253  058D  0276               	subwf	MIPITRANSFER1@j_111,w
  3254  058E  1803               	btfsc	3,0
  3255  058F  2DA7               	goto	l119
  3256  0590                     l120:	
  3257                           ;main.c: 114: do { LATB6 = 1; } while(0);
  3258                           
  3259  0590  170D               	bsf	13,6	;volatile
  3260                           
  3261                           ;main.c: 115: LATB7 = readDummy & 0x01;
  3262  0591  1C7D               	btfss	_readDummy,0
  3263  0592  2D96               	goto	u1060
  3264  0593  0022               	movlb	2	; select bank2
  3265  0594  178D               	bsf	13,7	;volatile
  3266  0595  2D98               	goto	u1074
  3267  0596                     u1060:	
  3268  0596  0022               	movlb	2	; select bank2
  3269  0597  138D               	bcf	13,7	;volatile
  3270  0598                     u1074:	
  3271  0598  0000               	nop	;# 
  3272                           
  3273                           ;main.c: 117: do { LATB6 = 0; } while(0);
  3274  0599  0022               	movlb	2	; select bank2
  3275  059A  130D               	bcf	13,6	;volatile
  3276                           
  3277                           ;main.c: 118: readDummy = readDummy >> 1;
  3278  059B  367D               	lsrf	_readDummy,w
  3279  059C  00F0               	movwf	??_MIPITRANSFER1
  3280  059D  0870               	movf	??_MIPITRANSFER1,w
  3281  059E  00FD               	movwf	_readDummy
  3282  059F  3001               	movlw	1
  3283  05A0  00F0               	movwf	??_MIPITRANSFER1
  3284  05A1  0870               	movf	??_MIPITRANSFER1,w
  3285  05A2  07F6               	addwf	MIPITRANSFER1@j_111,f
  3286  05A3  3007               	movlw	7
  3287  05A4  0276               	subwf	MIPITRANSFER1@j_111,w
  3288  05A5  1C03               	skipc
  3289  05A6  2D90               	goto	l120
  3290  05A7                     l119:	
  3291                           
  3292                           ;main.c: 119: }
  3293                           ;main.c: 120: for (uint8_t i=1; i<3; i++){
  3294  05A7  01F9               	clrf	MIPITRANSFER1@i_112
  3295  05A8  0AF9               	incf	MIPITRANSFER1@i_112,f
  3296  05A9                     L3:	
  3297  05A9  3003               	movlw	3
  3298  05AA  0279               	subwf	MIPITRANSFER1@i_112,w
  3299  05AB  1803               	btfsc	3,0
  3300  05AC  0008               	return
  3301                           
  3302                           ;main.c: 121: readDummy = USIDLOWREV[(k+i)];
  3303  05AD  0873               	movf	MIPITRANSFER1@k,w
  3304  05AE  0779               	addwf	MIPITRANSFER1@i_112,w
  3305  05AF  00F0               	movwf	??_MIPITRANSFER1
  3306  05B0  01F1               	clrf	??_MIPITRANSFER1+1
  3307  05B1  0DF1               	rlf	??_MIPITRANSFER1+1,f
  3308  05B2  3000               	movlw	low (_USIDLOWREV| (0+32768))
  3309  05B3  0770               	addwf	??_MIPITRANSFER1,w
  3310  05B4  0084               	movwf	4
  3311  05B5  3088               	movlw	high (_USIDLOWREV| (0+32768))
  3312  05B6  3D71               	addwfc	??_MIPITRANSFER1+1,w
  3313  05B7  0085               	movwf	5
  3314  05B8  0800               	movf	0,w	;code access
  3315  05B9  00F2               	movwf	??_MIPITRANSFER1+2
  3316  05BA  0872               	movf	??_MIPITRANSFER1+2,w
  3317  05BB  00FD               	movwf	_readDummy
  3318                           
  3319                           ;main.c: 122: for (uint8_t j=0; j<8; j++){
  3320  05BC  01F7               	clrf	MIPITRANSFER1@j_113
  3321  05BD  3008               	movlw	8
  3322  05BE  0277               	subwf	MIPITRANSFER1@j_113,w
  3323  05BF  1803               	btfsc	3,0
  3324  05C0  2DD9               	goto	l1058
  3325  05C1                     l128:	
  3326                           ;main.c: 123: do { LATB6 = 1; } while(0);
  3327                           
  3328  05C1  0022               	movlb	2	; select bank2
  3329  05C2  170D               	bsf	13,6	;volatile
  3330                           
  3331                           ;main.c: 124: LATB7 = readDummy & 0x01;
  3332  05C3  1C7D               	btfss	_readDummy,0
  3333  05C4  2DC8               	goto	u1110
  3334  05C5  0022               	movlb	2	; select bank2
  3335  05C6  178D               	bsf	13,7	;volatile
  3336  05C7  2DCA               	goto	u1124
  3337  05C8                     u1110:	
  3338  05C8  0022               	movlb	2	; select bank2
  3339  05C9  138D               	bcf	13,7	;volatile
  3340  05CA                     u1124:	
  3341  05CA  0000               	nop	;# 
  3342                           
  3343                           ;main.c: 126: do { LATB6 = 0; } while(0);
  3344  05CB  0022               	movlb	2	; select bank2
  3345  05CC  130D               	bcf	13,6	;volatile
  3346                           
  3347                           ;main.c: 127: readDummy = readDummy >> 1;
  3348  05CD  367D               	lsrf	_readDummy,w
  3349  05CE  00F0               	movwf	??_MIPITRANSFER1
  3350  05CF  0870               	movf	??_MIPITRANSFER1,w
  3351  05D0  00FD               	movwf	_readDummy
  3352  05D1  3001               	movlw	1
  3353  05D2  00F0               	movwf	??_MIPITRANSFER1
  3354  05D3  0870               	movf	??_MIPITRANSFER1,w
  3355  05D4  07F7               	addwf	MIPITRANSFER1@j_113,f
  3356  05D5  3008               	movlw	8
  3357  05D6  0277               	subwf	MIPITRANSFER1@j_113,w
  3358  05D7  1C03               	skipc
  3359  05D8  2DC1               	goto	l128
  3360  05D9                     l1058:	
  3361  05D9  3001               	movlw	1
  3362  05DA  00F0               	movwf	??_MIPITRANSFER1
  3363  05DB  0870               	movf	??_MIPITRANSFER1,w
  3364  05DC  07F9               	addwf	MIPITRANSFER1@i_112,f
  3365  05DD  2DA9               	goto	L3
  3366  05DE                     __end_of_MIPITRANSFER1:	
  3367                           
  3368                           	psect	text7
  3369  04DC                     __ptext7:	
  3370 ;; *************** function _DAC1_SetOutput *****************
  3371 ;; Defined at:
  3372 ;;		line 65 in file "mcc_generated_files/dac1.c"
  3373 ;; Parameters:    Size  Location     Type
  3374 ;;  inputData       1    wreg     unsigned char 
  3375 ;; Auto vars:     Size  Location     Type
  3376 ;;  inputData       1    0[COMMON] unsigned char 
  3377 ;; Return value:  Size  Location     Type
  3378 ;;		None               void
  3379 ;; Registers used:
  3380 ;;		wreg
  3381 ;; Tracked objects:
  3382 ;;		On entry : 0/0
  3383 ;;		On exit  : 0/0
  3384 ;;		Unchanged: 0/0
  3385 ;; Data sizes:     COMMON   BANK0   BANK1   BANK2   BANK3   BANK4   BANK5   BANK6
  3386 ;;      Params:         0       0       0       0       0       0       0       0
  3387 ;;      Locals:         1       0       0       0       0       0       0       0
  3388 ;;      Temps:          0       0       0       0       0       0       0       0
  3389 ;;      Totals:         1       0       0       0       0       0       0       0
  3390 ;;Total ram usage:        1 bytes
  3391 ;; Hardware stack levels used:    1
  3392 ;; This function calls:
  3393 ;;		Nothing
  3394 ;; This function is called by:
  3395 ;;		_main
  3396 ;; This function uses a non-reentrant model
  3397 ;;
  3398                           
  3399                           
  3400                           ;psect for function _DAC1_SetOutput
  3401  04DC                     _DAC1_SetOutput:	
  3402                           
  3403                           ;incstack = 0
  3404                           ; Regs used in _DAC1_SetOutput: [wreg]
  3405                           ;DAC1_SetOutput@inputData stored from wreg
  3406  04DC  00F0               	movwf	DAC1_SetOutput@inputData
  3407                           
  3408                           ;dac1.c: 66: DAC1CON1 = inputData;
  3409  04DD  0870               	movf	DAC1_SetOutput@inputData,w
  3410  04DE  0022               	movlb	2	; select bank2
  3411  04DF  0099               	movwf	25	;volatile
  3412  04E0  0008               	return
  3413  04E1                     __end_of_DAC1_SetOutput:	
  3414  007E                     btemp	set	126	;btemp
  3415  007E                     wtemp	set	126
  3416  007E                     wtemp0	set	126
  3417  0080                     wtemp1	set	128
  3418  0082                     wtemp2	set	130
  3419  0084                     wtemp3	set	132
  3420  0086                     wtemp4	set	134
  3421  0088                     wtemp5	set	136
  3422  007F                     wtemp6	set	127
  3423  007E                     ttemp	set	126
  3424  007E                     ttemp0	set	126
  3425  0081                     ttemp1	set	129
  3426  0084                     ttemp2	set	132
  3427  0087                     ttemp3	set	135
  3428  007F                     ttemp4	set	127
  3429  007E                     ltemp	set	126
  3430  007E                     ltemp0	set	126
  3431  0082                     ltemp1	set	130
  3432  0086                     ltemp2	set	134
  3433  0080                     ltemp3	set	128


Data Sizes:
    Strings     0
    Constant    73
    Data        0
    BSS         4
    Persistent  0
    Stack       0

Auto Spaces:
    Space          Size  Autos    Used
    COMMON           14     11      14
    BANK0            80      0       1
    BANK1            80      0       0
    BANK2            80      0       0
    BANK3            80      0       0
    BANK4            80      0       0
    BANK5            80      0       0
    BANK6            16      0       0

Pointer List with Targets:

    None.

Critical Paths under _main in COMMON

    _main->_MIPITRANSFER1
    _main->_MIPITRANSFER2

Critical Paths under _main in BANK0

    None.

Critical Paths under _main in BANK1

    None.

Critical Paths under _main in BANK2

    None.

Critical Paths under _main in BANK3

    None.

Critical Paths under _main in BANK4

    None.

Critical Paths under _main in BANK5

    None.

Critical Paths under _main in BANK6

    None.

Call Graph Tables:

 ---------------------------------------------------------------------------------
 (Depth) Function   	        Calls       Base Space   Used Autos Params    Refs
 ---------------------------------------------------------------------------------
 (0) _main                                                 1     1      0     750
                                             10 COMMON     1     1      0
                    _DAC1_Initialize
                     _DAC1_SetOutput
                      _MIPITRANSFER1
                      _MIPITRANSFER2
             _PIN_MANAGER_Initialize
                  _SYSTEM_Initialize
 ---------------------------------------------------------------------------------
 (1) _SYSTEM_Initialize                                    0     0      0       0
                    _DAC1_Initialize
              _OSCILLATOR_Initialize
             _PIN_MANAGER_Initialize
 ---------------------------------------------------------------------------------
 (2) _PIN_MANAGER_Initialize                               0     0      0       0
 ---------------------------------------------------------------------------------
 (2) _OSCILLATOR_Initialize                                0     0      0       0
 ---------------------------------------------------------------------------------
 (2) _DAC1_Initialize                                      0     0      0       0
 ---------------------------------------------------------------------------------
 (1) _MIPITRANSFER2                                       10    10      0     364
                                              0 COMMON    10    10      0
 ---------------------------------------------------------------------------------
 (1) _MIPITRANSFER1                                       10    10      0     364
                                              0 COMMON    10    10      0
 ---------------------------------------------------------------------------------
 (1) _DAC1_SetOutput                                       1     1      0      22
                                              0 COMMON     1     1      0
 ---------------------------------------------------------------------------------
 Estimated maximum stack depth 2
 ---------------------------------------------------------------------------------

 Call Graph Graphs:

 _main (ROOT)
   _DAC1_Initialize
   _DAC1_SetOutput
   _MIPITRANSFER1
   _MIPITRANSFER2
   _PIN_MANAGER_Initialize
   _SYSTEM_Initialize
     _DAC1_Initialize
     _OSCILLATOR_Initialize
     _PIN_MANAGER_Initialize

 Address spaces:
Name               Size   Autos  Total    Cost      Usage
BIGRAM             1F0      0       0       0        0.0%
NULL                 0      0       0       0        0.0%
CODE                 0      0       0       0        0.0%
BITCOMMON            E      0       0       1        0.0%
BITSFR0              0      0       0       1        0.0%
SFR0                 0      0       0       1        0.0%
COMMON               E      B       E       2      100.0%
BITSFR1              0      0       0       2        0.0%
SFR1                 0      0       0       2        0.0%
BITSFR2              0      0       0       3        0.0%
SFR2                 0      0       0       3        0.0%
STACK                0      0       0       3        0.0%
BITSFR3              0      0       0       4        0.0%
SFR3                 0      0       0       4        0.0%
ABS                  0      0       F       4        0.0%
BITBANK0            50      0       0       5        0.0%
BITSFR4              0      0       0       5        0.0%
SFR4                 0      0       0       5        0.0%
BANK0               50      0       1       6        1.3%
BITSFR5              0      0       0       6        0.0%
SFR5                 0      0       0       6        0.0%
BITBANK1            50      0       0       7        0.0%
BITSFR6              0      0       0       7        0.0%
SFR6                 0      0       0       7        0.0%
BANK1               50      0       0       8        0.0%
BITSFR7              0      0       0       8        0.0%
SFR7                 0      0       0       8        0.0%
BITBANK2            50      0       0       9        0.0%
BITSFR8              0      0       0       9        0.0%
SFR8                 0      0       0       9        0.0%
BANK2               50      0       0      10        0.0%
BITSFR9              0      0       0      10        0.0%
SFR9                 0      0       0      10        0.0%
BITBANK3            50      0       0      11        0.0%
BITSFR10             0      0       0      11        0.0%
SFR10                0      0       0      11        0.0%
BANK3               50      0       0      12        0.0%
BITSFR11             0      0       0      12        0.0%
SFR11                0      0       0      12        0.0%
BITBANK4            50      0       0      13        0.0%
BITSFR12             0      0       0      13        0.0%
SFR12                0      0       0      13        0.0%
BANK4               50      0       0      14        0.0%
BITSFR13             0      0       0      14        0.0%
SFR13                0      0       0      14        0.0%
BITBANK5            50      0       0      15        0.0%
BITSFR14             0      0       0      15        0.0%
SFR14                0      0       0      15        0.0%
BANK5               50      0       0      16        0.0%
BITSFR15             0      0       0      16        0.0%
SFR15                0      0       0      16        0.0%
BITBANK6            10      0       0      17        0.0%
BITSFR16             0      0       0      17        0.0%
SFR16                0      0       0      17        0.0%
BANK6               10      0       0      18        0.0%
BITSFR17             0      0       0      18        0.0%
SFR17                0      0       0      18        0.0%
BITSFR18             0      0       0      19        0.0%
SFR18                0      0       0      19        0.0%
DATA                 0      0       F      19        0.0%
BITSFR19             0      0       0      20        0.0%
SFR19                0      0       0      20        0.0%
BITSFR20             0      0       0      21        0.0%
SFR20                0      0       0      21        0.0%
BITSFR21             0      0       0      22        0.0%
SFR21                0      0       0      22        0.0%
BITSFR22             0      0       0      23        0.0%
SFR22                0      0       0      23        0.0%
BITSFR23             0      0       0      24        0.0%
SFR23                0      0       0      24        0.0%
BITSFR24             0      0       0      25        0.0%
SFR24                0      0       0      25        0.0%
BITSFR25             0      0       0      26        0.0%
SFR25                0      0       0      26        0.0%
BITSFR26             0      0       0      27        0.0%
SFR26                0      0       0      27        0.0%
BITSFR27             0      0       0      28        0.0%
SFR27                0      0       0      28        0.0%
BITSFR28             0      0       0      29        0.0%
SFR28                0      0       0      29        0.0%
BITSFR29             0      0       0      30        0.0%
SFR29                0      0       0      30        0.0%
BITSFR30             0      0       0      31        0.0%
SFR30                0      0       0      31        0.0%
BITSFR31             0      0       0      32        0.0%
SFR31                0      0       0      32        0.0%


Microchip Technology PIC Macro Assembler V1.34 build -361300703 
Symbol Table                                                                                   Mon Dec 21 14:41:11 2015

                    __CFG_CP$OFF 0000                      __CFG_LVP$ON 0000                  _DAC1_Initialize 04E1  
                            l101 053F                              l110 0555                              l102 0528  
                            l120 0590                              l107 0575                              l211 0743  
                            l140 060C                              l204 073E                              l141 05F5  
                            l214 0745                              l119 05A7                              l128 05C1  
                            l209 0741                              l146 0642                              l244 0787  
                            l149 0622                              l158 0674                              l246 0788  
                            l167 068E                              l159 065D                              l239 0785  
                            u960 052E                              u974 0530                     __CFG_BORV$LO 0000  
                 _DAC1_SetOutput 04DC                     __CFG_ZCD$OFF 0000                             l1012 0545  
                           l1024 056D                             l1140 06BD                             l1126 06A6  
                           l1222 077D                             l1214 076D                             l1080 0612  
                           l1232 0799                             l1144 06C9                             l1058 05D9  
                           l1250 07C0                             l1242 07AE                             l1218 0775  
                           l1226 0789                             l1092 063A                             l1260 07D5  
                           l1244 07B3                             l1236 07A1                             l1148 06D5  
                           l1262 07DA                             l1254 07C8                             l1238 07A6  
                           l1158 06F1                             l1272 07EF                             l1256 07CD  
                           l1248 07BB                             l1274 07F4                             l1266 07E2  
                           l1194 0748                             l1268 07E7                             l1198 0753  
                           u1010 055C                             u1110 05C8                             u1024 055E  
                           u1210 0629                             u1124 05CA                             u1060 0596  
                           u1310 0695                             u1224 062B                             u1160 05FB  
                           u1074 0598                             u1324 0697                             u1260 0663  
                           _LATA 010C                             u1174 05FD                             _LATB 010D  
                           _LATC 010E                             u1274 0665                             _WPUB 020D  
                           _WPUC 020E                     __CFG_WRT$OFF 0000                             _main 06AB  
                           fsr0h 0005                             fsr0l 0004                             indf0 0000  
                           btemp 007E                             ltemp 007E                             start 0002  
                           ttemp 007E                             wtemp 007E   __size_of_OSCILLATOR_Initialize 0006  
  __end_of_OSCILLATOR_Initialize 04EC                            ?_main 0070                    __CFG_WDTE$OFF 0000  
                          _LATA1 0861                            _LATA2 0862                            _LATA4 0864  
                          _LATB4 086C                            _LATB5 086D                            _LATB6 086E  
                          _LATB7 086F           __end_of_DAC1_SetOutput 04E1                            _PORTC 000E  
                          _TRISA 008C                            _TRISB 008D                            _TRISC 008E  
                          _Byte1 0020                            _Byte2 007B                            _Byte3 007C  
                  __CFG_PWRTE$ON 0000           __size_of_MIPITRANSFER1 00CD           __size_of_MIPITRANSFER2 00CD  
                 __CFG_BOREN$OFF 0000                            ltemp0 007E                            ltemp1 0082  
                          ltemp2 0086                            ltemp3 0080                            ttemp0 007E  
                          ttemp1 0081                            ttemp2 0084                            ttemp3 0087  
                          ttemp4 007F                            status 0003                            wtemp0 007E  
                          wtemp1 0080                            wtemp2 0082                            wtemp3 0084  
                          wtemp4 0086                            wtemp5 0088                            wtemp6 007F  
                 __CFG_MCLRE$OFF 0000                  __initialization 07F9                     __end_of_main 07F9  
        __end_of_DAC1_Initialize 04E6                   __CFG_LPBOR$OFF 0000                           ??_main 007A  
                ?_DAC1_SetOutput 0070                   __CFG_PLLEN$OFF 0000                           _ANSELA 018C  
                         _ANSELB 018D                           _ANSELC 018E                           _OSCCON 0099  
        DAC1_SetOutput@inputData 0070                    _MIPITRANSFER1 0511                    _MIPITRANSFER2 05DE  
                 __CFG_STVREN$ON 0000                __end_of_DacOutput 0849                _SYSTEM_Initialize 04EC  
        __end_of__initialization 07FD               ?_SYSTEM_Initialize 0070                   ?_MIPITRANSFER1 0070  
                 ?_MIPITRANSFER2 0070                   __pcstackCOMMON 0070              ??_SYSTEM_Initialize 0070  
               ?_DAC1_Initialize 0070                   _OPTION_REGbits 0095        __end_of_SYSTEM_Initialize 04F5  
                     __pbssBANK0 0020                       __pmaintext 06AB                  __CFG_PPS1WAY$ON 0000  
                 MIPITRANSFER1@i 0078                   MIPITRANSFER1@j 0074                   MIPITRANSFER1@k 0073  
                 MIPITRANSFER2@i 0078                   MIPITRANSFER2@j 0074                   MIPITRANSFER2@k 0073  
                __CFG_WDTCCS$SWC 0000                          _OSCSTAT 009A                          _OSCTUNE 0098  
                ??_MIPITRANSFER1 0070                  ??_MIPITRANSFER2 0070                 ??_DAC1_SetOutput 0070  
                        __ptext1 04EC                          __ptext2 04F5                          __ptext3 04E6  
                        __ptext4 04E1                          __ptext5 05DE                          __ptext6 0511  
                        __ptext7 04DC            _OSCILLATOR_Initialize 04E6               __end_of_USIDLOWREV 0824  
       ??_PIN_MANAGER_Initialize 0070       __size_of_SYSTEM_Initialize 0009             end_of_initialization 07FD  
                   __pstringtext 0800                 __CFG_FOSC$INTOSC 0000                        _DacOutput 0845  
             MIPITRANSFER1@i_112 0079           ?_OSCILLATOR_Initialize 0070               MIPITRANSFER1@j_110 0075  
             MIPITRANSFER1@j_111 0076               MIPITRANSFER1@j_113 0077               MIPITRANSFER2@i_120 0079  
             MIPITRANSFER2@j_121 0077               MIPITRANSFER2@j_118 0075               MIPITRANSFER2@j_119 0076  
            start_initialization 07F9  __size_of_PIN_MANAGER_Initialize 001C         __size_of_DAC1_Initialize 0005  
                    __pbssCOMMON 007B                        ___latbits 0001           _PIN_MANAGER_Initialize 04F5  
                       _DAC1CON0 0118                         _DAC1CON1 0119                        _readDummy 007D  
          __end_of_MIPITRANSFER1 05DE            __end_of_MIPITRANSFER2 06AB             __CFG_WDTCPS$WDTCPS1F 0000  
              ??_DAC1_Initialize 0070          ??_OSCILLATOR_Initialize 0070          __size_of_DAC1_SetOutput 0005  
            __end_of_USIDHIGHREV 0845                    __size_of_main 014E             __CFG_WDTCWS$WDTCWSSW 0000  
        ?_PIN_MANAGER_Initialize 0070                __CFG_CLKOUTEN$OFF 0000                      _USIDHIGHREV 0824  
 __end_of_PIN_MANAGER_Initialize 0511                       _USIDLOWREV 0800  
