

Microchip Technology PIC LITE Macro Assembler V1.34 build -361300703 
                                                                                               Wed Dec 16 10:19:46 2015

Microchip Technology Omniscient Code Generator (Lite mode) build 201502162209
     1                           	processor	16LF1618
     2                           	opt	pw 120
     3                           	opt	lm
     4                           	psect	stringtext,global,reloc=256,class=STRCODE,delta=2
     5                           	psect	cinit,global,class=CODE,merge=1,delta=2
     6                           	psect	bssCOMMON,global,class=COMMON,space=1,delta=1
     7                           	psect	bssBANK0,global,class=BANK0,space=1,delta=1
     8                           	psect	cstackCOMMON,global,class=COMMON,space=1,delta=1
     9                           	psect	maintext,global,class=CODE,merge=1,split=1,delta=2
    10                           	psect	text1,local,class=CODE,merge=1,delta=2
    11                           	psect	text2,local,class=CODE,merge=1,delta=2
    12                           	psect	text3,local,class=CODE,merge=1,delta=2
    13                           	psect	text4,local,class=CODE,merge=1,delta=2
    14                           	psect	text5,local,class=CODE,merge=1,delta=2
    15                           	psect	text6,local,class=CODE,merge=1,delta=2
    16                           	dabs	1,0x7E,2
    17  0000                     	;# 
    18  0001                     	;# 
    19  0002                     	;# 
    20  0003                     	;# 
    21  0004                     	;# 
    22  0005                     	;# 
    23  0006                     	;# 
    24  0007                     	;# 
    25  0008                     	;# 
    26  0009                     	;# 
    27  000A                     	;# 
    28  000B                     	;# 
    29  000C                     	;# 
    30  000D                     	;# 
    31  000E                     	;# 
    32  0010                     	;# 
    33  0011                     	;# 
    34  0012                     	;# 
    35  0013                     	;# 
    36  0014                     	;# 
    37  0015                     	;# 
    38  0016                     	;# 
    39  0016                     	;# 
    40  0017                     	;# 
    41  0018                     	;# 
    42  0019                     	;# 
    43  001A                     	;# 
    44  001A                     	;# 
    45  001B                     	;# 
    46  001B                     	;# 
    47  001C                     	;# 
    48  001D                     	;# 
    49  001E                     	;# 
    50  001F                     	;# 
    51  008C                     	;# 
    52  008D                     	;# 
    53  008E                     	;# 
    54  0090                     	;# 
    55  0091                     	;# 
    56  0092                     	;# 
    57  0093                     	;# 
    58  0094                     	;# 
    59  0095                     	;# 
    60  0096                     	;# 
    61  0098                     	;# 
    62  0099                     	;# 
    63  009A                     	;# 
    64  009B                     	;# 
    65  009B                     	;# 
    66  009C                     	;# 
    67  009D                     	;# 
    68  009E                     	;# 
    69  009F                     	;# 
    70  010C                     	;# 
    71  010D                     	;# 
    72  010E                     	;# 
    73  0111                     	;# 
    74  0112                     	;# 
    75  0113                     	;# 
    76  0114                     	;# 
    77  0115                     	;# 
    78  0116                     	;# 
    79  0117                     	;# 
    80  0118                     	;# 
    81  0119                     	;# 
    82  011C                     	;# 
    83  018C                     	;# 
    84  018D                     	;# 
    85  018E                     	;# 
    86  0191                     	;# 
    87  0191                     	;# 
    88  0192                     	;# 
    89  0193                     	;# 
    90  0193                     	;# 
    91  0194                     	;# 
    92  0195                     	;# 
    93  0196                     	;# 
    94  0199                     	;# 
    95  0199                     	;# 
    96  0199                     	;# 
    97  019A                     	;# 
    98  019A                     	;# 
    99  019A                     	;# 
   100  019B                     	;# 
   101  019B                     	;# 
   102  019B                     	;# 
   103  019B                     	;# 
   104  019B                     	;# 
   105  019C                     	;# 
   106  019C                     	;# 
   107  019C                     	;# 
   108  019D                     	;# 
   109  019D                     	;# 
   110  019D                     	;# 
   111  019E                     	;# 
   112  019E                     	;# 
   113  019E                     	;# 
   114  019F                     	;# 
   115  019F                     	;# 
   116  019F                     	;# 
   117  019F                     	;# 
   118  019F                     	;# 
   119  020C                     	;# 
   120  020D                     	;# 
   121  020E                     	;# 
   122  0211                     	;# 
   123  0211                     	;# 
   124  0212                     	;# 
   125  0212                     	;# 
   126  0213                     	;# 
   127  0213                     	;# 
   128  0214                     	;# 
   129  0214                     	;# 
   130  0215                     	;# 
   131  0215                     	;# 
   132  0215                     	;# 
   133  0215                     	;# 
   134  0216                     	;# 
   135  0216                     	;# 
   136  0217                     	;# 
   137  0217                     	;# 
   138  028C                     	;# 
   139  028D                     	;# 
   140  028E                     	;# 
   141  0291                     	;# 
   142  0291                     	;# 
   143  0292                     	;# 
   144  0293                     	;# 
   145  0294                     	;# 
   146  0298                     	;# 
   147  0298                     	;# 
   148  0299                     	;# 
   149  029A                     	;# 
   150  029B                     	;# 
   151  029E                     	;# 
   152  030C                     	;# 
   153  030D                     	;# 
   154  030E                     	;# 
   155  038C                     	;# 
   156  038D                     	;# 
   157  038E                     	;# 
   158  0391                     	;# 
   159  0392                     	;# 
   160  0393                     	;# 
   161  0394                     	;# 
   162  0395                     	;# 
   163  0396                     	;# 
   164  0397                     	;# 
   165  0398                     	;# 
   166  0399                     	;# 
   167  040E                     	;# 
   168  0413                     	;# 
   169  0413                     	;# 
   170  0414                     	;# 
   171  0414                     	;# 
   172  0415                     	;# 
   173  0416                     	;# 
   174  0417                     	;# 
   175  0418                     	;# 
   176  041A                     	;# 
   177  041A                     	;# 
   178  041B                     	;# 
   179  041B                     	;# 
   180  041C                     	;# 
   181  041D                     	;# 
   182  041E                     	;# 
   183  041F                     	;# 
   184  0493                     	;# 
   185  0494                     	;# 
   186  0495                     	;# 
   187  0496                     	;# 
   188  049A                     	;# 
   189  049B                     	;# 
   190  049C                     	;# 
   191  049D                     	;# 
   192  058C                     	;# 
   193  058C                     	;# 
   194  058D                     	;# 
   195  058E                     	;# 
   196  058E                     	;# 
   197  058F                     	;# 
   198  0590                     	;# 
   199  0590                     	;# 
   200  0591                     	;# 
   201  0592                     	;# 
   202  0592                     	;# 
   203  0593                     	;# 
   204  0594                     	;# 
   205  0594                     	;# 
   206  0595                     	;# 
   207  0596                     	;# 
   208  0596                     	;# 
   209  0597                     	;# 
   210  0598                     	;# 
   211  0599                     	;# 
   212  059A                     	;# 
   213  059B                     	;# 
   214  059B                     	;# 
   215  059C                     	;# 
   216  059D                     	;# 
   217  060C                     	;# 
   218  060C                     	;# 
   219  060D                     	;# 
   220  060E                     	;# 
   221  060F                     	;# 
   222  060F                     	;# 
   223  0610                     	;# 
   224  0611                     	;# 
   225  0612                     	;# 
   226  0613                     	;# 
   227  0614                     	;# 
   228  0617                     	;# 
   229  0618                     	;# 
   230  0619                     	;# 
   231  061A                     	;# 
   232  061B                     	;# 
   233  061C                     	;# 
   234  0691                     	;# 
   235  0692                     	;# 
   236  0693                     	;# 
   237  0694                     	;# 
   238  0695                     	;# 
   239  0696                     	;# 
   240  0697                     	;# 
   241  0699                     	;# 
   242  069A                     	;# 
   243  0711                     	;# 
   244  0712                     	;# 
   245  0713                     	;# 
   246  0714                     	;# 
   247  0715                     	;# 
   248  0718                     	;# 
   249  0718                     	;# 
   250  0719                     	;# 
   251  071A                     	;# 
   252  071A                     	;# 
   253  071B                     	;# 
   254  071C                     	;# 
   255  071D                     	;# 
   256  0791                     	;# 
   257  0791                     	;# 
   258  0792                     	;# 
   259  0793                     	;# 
   260  0793                     	;# 
   261  0794                     	;# 
   262  0795                     	;# 
   263  0795                     	;# 
   264  0796                     	;# 
   265  0797                     	;# 
   266  0797                     	;# 
   267  0798                     	;# 
   268  0799                     	;# 
   269  079A                     	;# 
   270  080C                     	;# 
   271  080C                     	;# 
   272  080D                     	;# 
   273  080E                     	;# 
   274  080E                     	;# 
   275  080F                     	;# 
   276  0810                     	;# 
   277  0810                     	;# 
   278  0811                     	;# 
   279  0812                     	;# 
   280  0812                     	;# 
   281  0813                     	;# 
   282  0814                     	;# 
   283  0815                     	;# 
   284  0816                     	;# 
   285  0817                     	;# 
   286  0818                     	;# 
   287  0819                     	;# 
   288  081A                     	;# 
   289  081A                     	;# 
   290  081B                     	;# 
   291  081C                     	;# 
   292  081C                     	;# 
   293  081D                     	;# 
   294  088C                     	;# 
   295  088D                     	;# 
   296  088E                     	;# 
   297  088F                     	;# 
   298  088F                     	;# 
   299  0890                     	;# 
   300  0891                     	;# 
   301  0892                     	;# 
   302  0893                     	;# 
   303  0893                     	;# 
   304  0894                     	;# 
   305  0895                     	;# 
   306  0896                     	;# 
   307  0897                     	;# 
   308  0897                     	;# 
   309  0898                     	;# 
   310  0899                     	;# 
   311  0D8C                     	;# 
   312  0D8C                     	;# 
   313  0D8D                     	;# 
   314  0D8E                     	;# 
   315  0D8F                     	;# 
   316  0D8F                     	;# 
   317  0D90                     	;# 
   318  0D91                     	;# 
   319  0D92                     	;# 
   320  0D92                     	;# 
   321  0D93                     	;# 
   322  0D94                     	;# 
   323  0D95                     	;# 
   324  0D95                     	;# 
   325  0D96                     	;# 
   326  0D97                     	;# 
   327  0D98                     	;# 
   328  0D99                     	;# 
   329  0D9A                     	;# 
   330  0D9B                     	;# 
   331  0D9C                     	;# 
   332  0D9D                     	;# 
   333  0D9E                     	;# 
   334  0D9E                     	;# 
   335  0D9F                     	;# 
   336  0DA0                     	;# 
   337  0DA1                     	;# 
   338  0DA1                     	;# 
   339  0DA2                     	;# 
   340  0DA3                     	;# 
   341  0DA4                     	;# 
   342  0DA4                     	;# 
   343  0DA5                     	;# 
   344  0DA6                     	;# 
   345  0DA7                     	;# 
   346  0DA7                     	;# 
   347  0DA8                     	;# 
   348  0DA9                     	;# 
   349  0DAA                     	;# 
   350  0DAB                     	;# 
   351  0DAC                     	;# 
   352  0DAD                     	;# 
   353  0DAE                     	;# 
   354  0DAF                     	;# 
   355  0E0F                     	;# 
   356  0E10                     	;# 
   357  0E11                     	;# 
   358  0E12                     	;# 
   359  0E13                     	;# 
   360  0E14                     	;# 
   361  0E15                     	;# 
   362  0E16                     	;# 
   363  0E17                     	;# 
   364  0E18                     	;# 
   365  0E19                     	;# 
   366  0E1A                     	;# 
   367  0E1B                     	;# 
   368  0E1C                     	;# 
   369  0E1D                     	;# 
   370  0E1E                     	;# 
   371  0E1F                     	;# 
   372  0E20                     	;# 
   373  0E21                     	;# 
   374  0E22                     	;# 
   375  0E23                     	;# 
   376  0E24                     	;# 
   377  0E25                     	;# 
   378  0E26                     	;# 
   379  0E27                     	;# 
   380  0E28                     	;# 
   381  0E29                     	;# 
   382  0E2A                     	;# 
   383  0E2B                     	;# 
   384  0E2C                     	;# 
   385  0E2D                     	;# 
   386  0E2E                     	;# 
   387  0E90                     	;# 
   388  0E91                     	;# 
   389  0E92                     	;# 
   390  0E94                     	;# 
   391  0E95                     	;# 
   392  0E9C                     	;# 
   393  0E9D                     	;# 
   394  0E9E                     	;# 
   395  0E9F                     	;# 
   396  0EA0                     	;# 
   397  0EA1                     	;# 
   398  0EA2                     	;# 
   399  0EA3                     	;# 
   400  0EA4                     	;# 
   401  0EA5                     	;# 
   402  0EA6                     	;# 
   403  0EA7                     	;# 
   404  0F0F                     	;# 
   405  0F10                     	;# 
   406  0F11                     	;# 
   407  0F12                     	;# 
   408  0F13                     	;# 
   409  0F14                     	;# 
   410  0F15                     	;# 
   411  0F16                     	;# 
   412  0F17                     	;# 
   413  0F18                     	;# 
   414  0F19                     	;# 
   415  0F1A                     	;# 
   416  0F1B                     	;# 
   417  0F1C                     	;# 
   418  0F1D                     	;# 
   419  0F1E                     	;# 
   420  0F1F                     	;# 
   421  0F20                     	;# 
   422  0F21                     	;# 
   423  0F22                     	;# 
   424  0F23                     	;# 
   425  0FE4                     	;# 
   426  0FE5                     	;# 
   427  0FE6                     	;# 
   428  0FE7                     	;# 
   429  0FE8                     	;# 
   430  0FE9                     	;# 
   431  0FEA                     	;# 
   432  0FEB                     	;# 
   433  0FED                     	;# 
   434  0FEE                     	;# 
   435  0FEF                     	;# 
   436  0000                     	;# 
   437  0001                     	;# 
   438  0002                     	;# 
   439  0003                     	;# 
   440  0004                     	;# 
   441  0005                     	;# 
   442  0006                     	;# 
   443  0007                     	;# 
   444  0008                     	;# 
   445  0009                     	;# 
   446  000A                     	;# 
   447  000B                     	;# 
   448  000C                     	;# 
   449  000D                     	;# 
   450  000E                     	;# 
   451  0010                     	;# 
   452  0011                     	;# 
   453  0012                     	;# 
   454  0013                     	;# 
   455  0014                     	;# 
   456  0015                     	;# 
   457  0016                     	;# 
   458  0016                     	;# 
   459  0017                     	;# 
   460  0018                     	;# 
   461  0019                     	;# 
   462  001A                     	;# 
   463  001A                     	;# 
   464  001B                     	;# 
   465  001B                     	;# 
   466  001C                     	;# 
   467  001D                     	;# 
   468  001E                     	;# 
   469  001F                     	;# 
   470  008C                     	;# 
   471  008D                     	;# 
   472  008E                     	;# 
   473  0090                     	;# 
   474  0091                     	;# 
   475  0092                     	;# 
   476  0093                     	;# 
   477  0094                     	;# 
   478  0095                     	;# 
   479  0096                     	;# 
   480  0098                     	;# 
   481  0099                     	;# 
   482  009A                     	;# 
   483  009B                     	;# 
   484  009B                     	;# 
   485  009C                     	;# 
   486  009D                     	;# 
   487  009E                     	;# 
   488  009F                     	;# 
   489  010C                     	;# 
   490  010D                     	;# 
   491  010E                     	;# 
   492  0111                     	;# 
   493  0112                     	;# 
   494  0113                     	;# 
   495  0114                     	;# 
   496  0115                     	;# 
   497  0116                     	;# 
   498  0117                     	;# 
   499  0118                     	;# 
   500  0119                     	;# 
   501  011C                     	;# 
   502  018C                     	;# 
   503  018D                     	;# 
   504  018E                     	;# 
   505  0191                     	;# 
   506  0191                     	;# 
   507  0192                     	;# 
   508  0193                     	;# 
   509  0193                     	;# 
   510  0194                     	;# 
   511  0195                     	;# 
   512  0196                     	;# 
   513  0199                     	;# 
   514  0199                     	;# 
   515  0199                     	;# 
   516  019A                     	;# 
   517  019A                     	;# 
   518  019A                     	;# 
   519  019B                     	;# 
   520  019B                     	;# 
   521  019B                     	;# 
   522  019B                     	;# 
   523  019B                     	;# 
   524  019C                     	;# 
   525  019C                     	;# 
   526  019C                     	;# 
   527  019D                     	;# 
   528  019D                     	;# 
   529  019D                     	;# 
   530  019E                     	;# 
   531  019E                     	;# 
   532  019E                     	;# 
   533  019F                     	;# 
   534  019F                     	;# 
   535  019F                     	;# 
   536  019F                     	;# 
   537  019F                     	;# 
   538  020C                     	;# 
   539  020D                     	;# 
   540  020E                     	;# 
   541  0211                     	;# 
   542  0211                     	;# 
   543  0212                     	;# 
   544  0212                     	;# 
   545  0213                     	;# 
   546  0213                     	;# 
   547  0214                     	;# 
   548  0214                     	;# 
   549  0215                     	;# 
   550  0215                     	;# 
   551  0215                     	;# 
   552  0215                     	;# 
   553  0216                     	;# 
   554  0216                     	;# 
   555  0217                     	;# 
   556  0217                     	;# 
   557  028C                     	;# 
   558  028D                     	;# 
   559  028E                     	;# 
   560  0291                     	;# 
   561  0291                     	;# 
   562  0292                     	;# 
   563  0293                     	;# 
   564  0294                     	;# 
   565  0298                     	;# 
   566  0298                     	;# 
   567  0299                     	;# 
   568  029A                     	;# 
   569  029B                     	;# 
   570  029E                     	;# 
   571  030C                     	;# 
   572  030D                     	;# 
   573  030E                     	;# 
   574  038C                     	;# 
   575  038D                     	;# 
   576  038E                     	;# 
   577  0391                     	;# 
   578  0392                     	;# 
   579  0393                     	;# 
   580  0394                     	;# 
   581  0395                     	;# 
   582  0396                     	;# 
   583  0397                     	;# 
   584  0398                     	;# 
   585  0399                     	;# 
   586  040E                     	;# 
   587  0413                     	;# 
   588  0413                     	;# 
   589  0414                     	;# 
   590  0414                     	;# 
   591  0415                     	;# 
   592  0416                     	;# 
   593  0417                     	;# 
   594  0418                     	;# 
   595  041A                     	;# 
   596  041A                     	;# 
   597  041B                     	;# 
   598  041B                     	;# 
   599  041C                     	;# 
   600  041D                     	;# 
   601  041E                     	;# 
   602  041F                     	;# 
   603  0493                     	;# 
   604  0494                     	;# 
   605  0495                     	;# 
   606  0496                     	;# 
   607  049A                     	;# 
   608  049B                     	;# 
   609  049C                     	;# 
   610  049D                     	;# 
   611  058C                     	;# 
   612  058C                     	;# 
   613  058D                     	;# 
   614  058E                     	;# 
   615  058E                     	;# 
   616  058F                     	;# 
   617  0590                     	;# 
   618  0590                     	;# 
   619  0591                     	;# 
   620  0592                     	;# 
   621  0592                     	;# 
   622  0593                     	;# 
   623  0594                     	;# 
   624  0594                     	;# 
   625  0595                     	;# 
   626  0596                     	;# 
   627  0596                     	;# 
   628  0597                     	;# 
   629  0598                     	;# 
   630  0599                     	;# 
   631  059A                     	;# 
   632  059B                     	;# 
   633  059B                     	;# 
   634  059C                     	;# 
   635  059D                     	;# 
   636  060C                     	;# 
   637  060C                     	;# 
   638  060D                     	;# 
   639  060E                     	;# 
   640  060F                     	;# 
   641  060F                     	;# 
   642  0610                     	;# 
   643  0611                     	;# 
   644  0612                     	;# 
   645  0613                     	;# 
   646  0614                     	;# 
   647  0617                     	;# 
   648  0618                     	;# 
   649  0619                     	;# 
   650  061A                     	;# 
   651  061B                     	;# 
   652  061C                     	;# 
   653  0691                     	;# 
   654  0692                     	;# 
   655  0693                     	;# 
   656  0694                     	;# 
   657  0695                     	;# 
   658  0696                     	;# 
   659  0697                     	;# 
   660  0699                     	;# 
   661  069A                     	;# 
   662  0711                     	;# 
   663  0712                     	;# 
   664  0713                     	;# 
   665  0714                     	;# 
   666  0715                     	;# 
   667  0718                     	;# 
   668  0718                     	;# 
   669  0719                     	;# 
   670  071A                     	;# 
   671  071A                     	;# 
   672  071B                     	;# 
   673  071C                     	;# 
   674  071D                     	;# 
   675  0791                     	;# 
   676  0791                     	;# 
   677  0792                     	;# 
   678  0793                     	;# 
   679  0793                     	;# 
   680  0794                     	;# 
   681  0795                     	;# 
   682  0795                     	;# 
   683  0796                     	;# 
   684  0797                     	;# 
   685  0797                     	;# 
   686  0798                     	;# 
   687  0799                     	;# 
   688  079A                     	;# 
   689  080C                     	;# 
   690  080C                     	;# 
   691  080D                     	;# 
   692  080E                     	;# 
   693  080E                     	;# 
   694  080F                     	;# 
   695  0810                     	;# 
   696  0810                     	;# 
   697  0811                     	;# 
   698  0812                     	;# 
   699  0812                     	;# 
   700  0813                     	;# 
   701  0814                     	;# 
   702  0815                     	;# 
   703  0816                     	;# 
   704  0817                     	;# 
   705  0818                     	;# 
   706  0819                     	;# 
   707  081A                     	;# 
   708  081A                     	;# 
   709  081B                     	;# 
   710  081C                     	;# 
   711  081C                     	;# 
   712  081D                     	;# 
   713  088C                     	;# 
   714  088D                     	;# 
   715  088E                     	;# 
   716  088F                     	;# 
   717  088F                     	;# 
   718  0890                     	;# 
   719  0891                     	;# 
   720  0892                     	;# 
   721  0893                     	;# 
   722  0893                     	;# 
   723  0894                     	;# 
   724  0895                     	;# 
   725  0896                     	;# 
   726  0897                     	;# 
   727  0897                     	;# 
   728  0898                     	;# 
   729  0899                     	;# 
   730  0D8C                     	;# 
   731  0D8C                     	;# 
   732  0D8D                     	;# 
   733  0D8E                     	;# 
   734  0D8F                     	;# 
   735  0D8F                     	;# 
   736  0D90                     	;# 
   737  0D91                     	;# 
   738  0D92                     	;# 
   739  0D92                     	;# 
   740  0D93                     	;# 
   741  0D94                     	;# 
   742  0D95                     	;# 
   743  0D95                     	;# 
   744  0D96                     	;# 
   745  0D97                     	;# 
   746  0D98                     	;# 
   747  0D99                     	;# 
   748  0D9A                     	;# 
   749  0D9B                     	;# 
   750  0D9C                     	;# 
   751  0D9D                     	;# 
   752  0D9E                     	;# 
   753  0D9E                     	;# 
   754  0D9F                     	;# 
   755  0DA0                     	;# 
   756  0DA1                     	;# 
   757  0DA1                     	;# 
   758  0DA2                     	;# 
   759  0DA3                     	;# 
   760  0DA4                     	;# 
   761  0DA4                     	;# 
   762  0DA5                     	;# 
   763  0DA6                     	;# 
   764  0DA7                     	;# 
   765  0DA7                     	;# 
   766  0DA8                     	;# 
   767  0DA9                     	;# 
   768  0DAA                     	;# 
   769  0DAB                     	;# 
   770  0DAC                     	;# 
   771  0DAD                     	;# 
   772  0DAE                     	;# 
   773  0DAF                     	;# 
   774  0E0F                     	;# 
   775  0E10                     	;# 
   776  0E11                     	;# 
   777  0E12                     	;# 
   778  0E13                     	;# 
   779  0E14                     	;# 
   780  0E15                     	;# 
   781  0E16                     	;# 
   782  0E17                     	;# 
   783  0E18                     	;# 
   784  0E19                     	;# 
   785  0E1A                     	;# 
   786  0E1B                     	;# 
   787  0E1C                     	;# 
   788  0E1D                     	;# 
   789  0E1E                     	;# 
   790  0E1F                     	;# 
   791  0E20                     	;# 
   792  0E21                     	;# 
   793  0E22                     	;# 
   794  0E23                     	;# 
   795  0E24                     	;# 
   796  0E25                     	;# 
   797  0E26                     	;# 
   798  0E27                     	;# 
   799  0E28                     	;# 
   800  0E29                     	;# 
   801  0E2A                     	;# 
   802  0E2B                     	;# 
   803  0E2C                     	;# 
   804  0E2D                     	;# 
   805  0E2E                     	;# 
   806  0E90                     	;# 
   807  0E91                     	;# 
   808  0E92                     	;# 
   809  0E94                     	;# 
   810  0E95                     	;# 
   811  0E9C                     	;# 
   812  0E9D                     	;# 
   813  0E9E                     	;# 
   814  0E9F                     	;# 
   815  0EA0                     	;# 
   816  0EA1                     	;# 
   817  0EA2                     	;# 
   818  0EA3                     	;# 
   819  0EA4                     	;# 
   820  0EA5                     	;# 
   821  0EA6                     	;# 
   822  0EA7                     	;# 
   823  0F0F                     	;# 
   824  0F10                     	;# 
   825  0F11                     	;# 
   826  0F12                     	;# 
   827  0F13                     	;# 
   828  0F14                     	;# 
   829  0F15                     	;# 
   830  0F16                     	;# 
   831  0F17                     	;# 
   832  0F18                     	;# 
   833  0F19                     	;# 
   834  0F1A                     	;# 
   835  0F1B                     	;# 
   836  0F1C                     	;# 
   837  0F1D                     	;# 
   838  0F1E                     	;# 
   839  0F1F                     	;# 
   840  0F20                     	;# 
   841  0F21                     	;# 
   842  0F22                     	;# 
   843  0F23                     	;# 
   844  0FE4                     	;# 
   845  0FE5                     	;# 
   846  0FE6                     	;# 
   847  0FE7                     	;# 
   848  0FE8                     	;# 
   849  0FE9                     	;# 
   850  0FEA                     	;# 
   851  0FEB                     	;# 
   852  0FED                     	;# 
   853  0FEE                     	;# 
   854  0FEF                     	;# 
   855  0000                     	;# 
   856  0001                     	;# 
   857  0002                     	;# 
   858  0003                     	;# 
   859  0004                     	;# 
   860  0005                     	;# 
   861  0006                     	;# 
   862  0007                     	;# 
   863  0008                     	;# 
   864  0009                     	;# 
   865  000A                     	;# 
   866  000B                     	;# 
   867  000C                     	;# 
   868  000D                     	;# 
   869  000E                     	;# 
   870  0010                     	;# 
   871  0011                     	;# 
   872  0012                     	;# 
   873  0013                     	;# 
   874  0014                     	;# 
   875  0015                     	;# 
   876  0016                     	;# 
   877  0016                     	;# 
   878  0017                     	;# 
   879  0018                     	;# 
   880  0019                     	;# 
   881  001A                     	;# 
   882  001A                     	;# 
   883  001B                     	;# 
   884  001B                     	;# 
   885  001C                     	;# 
   886  001D                     	;# 
   887  001E                     	;# 
   888  001F                     	;# 
   889  008C                     	;# 
   890  008D                     	;# 
   891  008E                     	;# 
   892  0090                     	;# 
   893  0091                     	;# 
   894  0092                     	;# 
   895  0093                     	;# 
   896  0094                     	;# 
   897  0095                     	;# 
   898  0096                     	;# 
   899  0098                     	;# 
   900  0099                     	;# 
   901  009A                     	;# 
   902  009B                     	;# 
   903  009B                     	;# 
   904  009C                     	;# 
   905  009D                     	;# 
   906  009E                     	;# 
   907  009F                     	;# 
   908  010C                     	;# 
   909  010D                     	;# 
   910  010E                     	;# 
   911  0111                     	;# 
   912  0112                     	;# 
   913  0113                     	;# 
   914  0114                     	;# 
   915  0115                     	;# 
   916  0116                     	;# 
   917  0117                     	;# 
   918  0118                     	;# 
   919  0119                     	;# 
   920  011C                     	;# 
   921  018C                     	;# 
   922  018D                     	;# 
   923  018E                     	;# 
   924  0191                     	;# 
   925  0191                     	;# 
   926  0192                     	;# 
   927  0193                     	;# 
   928  0193                     	;# 
   929  0194                     	;# 
   930  0195                     	;# 
   931  0196                     	;# 
   932  0199                     	;# 
   933  0199                     	;# 
   934  0199                     	;# 
   935  019A                     	;# 
   936  019A                     	;# 
   937  019A                     	;# 
   938  019B                     	;# 
   939  019B                     	;# 
   940  019B                     	;# 
   941  019B                     	;# 
   942  019B                     	;# 
   943  019C                     	;# 
   944  019C                     	;# 
   945  019C                     	;# 
   946  019D                     	;# 
   947  019D                     	;# 
   948  019D                     	;# 
   949  019E                     	;# 
   950  019E                     	;# 
   951  019E                     	;# 
   952  019F                     	;# 
   953  019F                     	;# 
   954  019F                     	;# 
   955  019F                     	;# 
   956  019F                     	;# 
   957  020C                     	;# 
   958  020D                     	;# 
   959  020E                     	;# 
   960  0211                     	;# 
   961  0211                     	;# 
   962  0212                     	;# 
   963  0212                     	;# 
   964  0213                     	;# 
   965  0213                     	;# 
   966  0214                     	;# 
   967  0214                     	;# 
   968  0215                     	;# 
   969  0215                     	;# 
   970  0215                     	;# 
   971  0215                     	;# 
   972  0216                     	;# 
   973  0216                     	;# 
   974  0217                     	;# 
   975  0217                     	;# 
   976  028C                     	;# 
   977  028D                     	;# 
   978  028E                     	;# 
   979  0291                     	;# 
   980  0291                     	;# 
   981  0292                     	;# 
   982  0293                     	;# 
   983  0294                     	;# 
   984  0298                     	;# 
   985  0298                     	;# 
   986  0299                     	;# 
   987  029A                     	;# 
   988  029B                     	;# 
   989  029E                     	;# 
   990  030C                     	;# 
   991  030D                     	;# 
   992  030E                     	;# 
   993  038C                     	;# 
   994  038D                     	;# 
   995  038E                     	;# 
   996  0391                     	;# 
   997  0392                     	;# 
   998  0393                     	;# 
   999  0394                     	;# 
  1000  0395                     	;# 
  1001  0396                     	;# 
  1002  0397                     	;# 
  1003  0398                     	;# 
  1004  0399                     	;# 
  1005  040E                     	;# 
  1006  0413                     	;# 
  1007  0413                     	;# 
  1008  0414                     	;# 
  1009  0414                     	;# 
  1010  0415                     	;# 
  1011  0416                     	;# 
  1012  0417                     	;# 
  1013  0418                     	;# 
  1014  041A                     	;# 
  1015  041A                     	;# 
  1016  041B                     	;# 
  1017  041B                     	;# 
  1018  041C                     	;# 
  1019  041D                     	;# 
  1020  041E                     	;# 
  1021  041F                     	;# 
  1022  0493                     	;# 
  1023  0494                     	;# 
  1024  0495                     	;# 
  1025  0496                     	;# 
  1026  049A                     	;# 
  1027  049B                     	;# 
  1028  049C                     	;# 
  1029  049D                     	;# 
  1030  058C                     	;# 
  1031  058C                     	;# 
  1032  058D                     	;# 
  1033  058E                     	;# 
  1034  058E                     	;# 
  1035  058F                     	;# 
  1036  0590                     	;# 
  1037  0590                     	;# 
  1038  0591                     	;# 
  1039  0592                     	;# 
  1040  0592                     	;# 
  1041  0593                     	;# 
  1042  0594                     	;# 
  1043  0594                     	;# 
  1044  0595                     	;# 
  1045  0596                     	;# 
  1046  0596                     	;# 
  1047  0597                     	;# 
  1048  0598                     	;# 
  1049  0599                     	;# 
  1050  059A                     	;# 
  1051  059B                     	;# 
  1052  059B                     	;# 
  1053  059C                     	;# 
  1054  059D                     	;# 
  1055  060C                     	;# 
  1056  060C                     	;# 
  1057  060D                     	;# 
  1058  060E                     	;# 
  1059  060F                     	;# 
  1060  060F                     	;# 
  1061  0610                     	;# 
  1062  0611                     	;# 
  1063  0612                     	;# 
  1064  0613                     	;# 
  1065  0614                     	;# 
  1066  0617                     	;# 
  1067  0618                     	;# 
  1068  0619                     	;# 
  1069  061A                     	;# 
  1070  061B                     	;# 
  1071  061C                     	;# 
  1072  0691                     	;# 
  1073  0692                     	;# 
  1074  0693                     	;# 
  1075  0694                     	;# 
  1076  0695                     	;# 
  1077  0696                     	;# 
  1078  0697                     	;# 
  1079  0699                     	;# 
  1080  069A                     	;# 
  1081  0711                     	;# 
  1082  0712                     	;# 
  1083  0713                     	;# 
  1084  0714                     	;# 
  1085  0715                     	;# 
  1086  0718                     	;# 
  1087  0718                     	;# 
  1088  0719                     	;# 
  1089  071A                     	;# 
  1090  071A                     	;# 
  1091  071B                     	;# 
  1092  071C                     	;# 
  1093  071D                     	;# 
  1094  0791                     	;# 
  1095  0791                     	;# 
  1096  0792                     	;# 
  1097  0793                     	;# 
  1098  0793                     	;# 
  1099  0794                     	;# 
  1100  0795                     	;# 
  1101  0795                     	;# 
  1102  0796                     	;# 
  1103  0797                     	;# 
  1104  0797                     	;# 
  1105  0798                     	;# 
  1106  0799                     	;# 
  1107  079A                     	;# 
  1108  080C                     	;# 
  1109  080C                     	;# 
  1110  080D                     	;# 
  1111  080E                     	;# 
  1112  080E                     	;# 
  1113  080F                     	;# 
  1114  0810                     	;# 
  1115  0810                     	;# 
  1116  0811                     	;# 
  1117  0812                     	;# 
  1118  0812                     	;# 
  1119  0813                     	;# 
  1120  0814                     	;# 
  1121  0815                     	;# 
  1122  0816                     	;# 
  1123  0817                     	;# 
  1124  0818                     	;# 
  1125  0819                     	;# 
  1126  081A                     	;# 
  1127  081A                     	;# 
  1128  081B                     	;# 
  1129  081C                     	;# 
  1130  081C                     	;# 
  1131  081D                     	;# 
  1132  088C                     	;# 
  1133  088D                     	;# 
  1134  088E                     	;# 
  1135  088F                     	;# 
  1136  088F                     	;# 
  1137  0890                     	;# 
  1138  0891                     	;# 
  1139  0892                     	;# 
  1140  0893                     	;# 
  1141  0893                     	;# 
  1142  0894                     	;# 
  1143  0895                     	;# 
  1144  0896                     	;# 
  1145  0897                     	;# 
  1146  0897                     	;# 
  1147  0898                     	;# 
  1148  0899                     	;# 
  1149  0D8C                     	;# 
  1150  0D8C                     	;# 
  1151  0D8D                     	;# 
  1152  0D8E                     	;# 
  1153  0D8F                     	;# 
  1154  0D8F                     	;# 
  1155  0D90                     	;# 
  1156  0D91                     	;# 
  1157  0D92                     	;# 
  1158  0D92                     	;# 
  1159  0D93                     	;# 
  1160  0D94                     	;# 
  1161  0D95                     	;# 
  1162  0D95                     	;# 
  1163  0D96                     	;# 
  1164  0D97                     	;# 
  1165  0D98                     	;# 
  1166  0D99                     	;# 
  1167  0D9A                     	;# 
  1168  0D9B                     	;# 
  1169  0D9C                     	;# 
  1170  0D9D                     	;# 
  1171  0D9E                     	;# 
  1172  0D9E                     	;# 
  1173  0D9F                     	;# 
  1174  0DA0                     	;# 
  1175  0DA1                     	;# 
  1176  0DA1                     	;# 
  1177  0DA2                     	;# 
  1178  0DA3                     	;# 
  1179  0DA4                     	;# 
  1180  0DA4                     	;# 
  1181  0DA5                     	;# 
  1182  0DA6                     	;# 
  1183  0DA7                     	;# 
  1184  0DA7                     	;# 
  1185  0DA8                     	;# 
  1186  0DA9                     	;# 
  1187  0DAA                     	;# 
  1188  0DAB                     	;# 
  1189  0DAC                     	;# 
  1190  0DAD                     	;# 
  1191  0DAE                     	;# 
  1192  0DAF                     	;# 
  1193  0E0F                     	;# 
  1194  0E10                     	;# 
  1195  0E11                     	;# 
  1196  0E12                     	;# 
  1197  0E13                     	;# 
  1198  0E14                     	;# 
  1199  0E15                     	;# 
  1200  0E16                     	;# 
  1201  0E17                     	;# 
  1202  0E18                     	;# 
  1203  0E19                     	;# 
  1204  0E1A                     	;# 
  1205  0E1B                     	;# 
  1206  0E1C                     	;# 
  1207  0E1D                     	;# 
  1208  0E1E                     	;# 
  1209  0E1F                     	;# 
  1210  0E20                     	;# 
  1211  0E21                     	;# 
  1212  0E22                     	;# 
  1213  0E23                     	;# 
  1214  0E24                     	;# 
  1215  0E25                     	;# 
  1216  0E26                     	;# 
  1217  0E27                     	;# 
  1218  0E28                     	;# 
  1219  0E29                     	;# 
  1220  0E2A                     	;# 
  1221  0E2B                     	;# 
  1222  0E2C                     	;# 
  1223  0E2D                     	;# 
  1224  0E2E                     	;# 
  1225  0E90                     	;# 
  1226  0E91                     	;# 
  1227  0E92                     	;# 
  1228  0E94                     	;# 
  1229  0E95                     	;# 
  1230  0E9C                     	;# 
  1231  0E9D                     	;# 
  1232  0E9E                     	;# 
  1233  0E9F                     	;# 
  1234  0EA0                     	;# 
  1235  0EA1                     	;# 
  1236  0EA2                     	;# 
  1237  0EA3                     	;# 
  1238  0EA4                     	;# 
  1239  0EA5                     	;# 
  1240  0EA6                     	;# 
  1241  0EA7                     	;# 
  1242  0F0F                     	;# 
  1243  0F10                     	;# 
  1244  0F11                     	;# 
  1245  0F12                     	;# 
  1246  0F13                     	;# 
  1247  0F14                     	;# 
  1248  0F15                     	;# 
  1249  0F16                     	;# 
  1250  0F17                     	;# 
  1251  0F18                     	;# 
  1252  0F19                     	;# 
  1253  0F1A                     	;# 
  1254  0F1B                     	;# 
  1255  0F1C                     	;# 
  1256  0F1D                     	;# 
  1257  0F1E                     	;# 
  1258  0F1F                     	;# 
  1259  0F20                     	;# 
  1260  0F21                     	;# 
  1261  0F22                     	;# 
  1262  0F23                     	;# 
  1263  0FE4                     	;# 
  1264  0FE5                     	;# 
  1265  0FE6                     	;# 
  1266  0FE7                     	;# 
  1267  0FE8                     	;# 
  1268  0FE9                     	;# 
  1269  0FEA                     	;# 
  1270  0FEB                     	;# 
  1271  0FED                     	;# 
  1272  0FEE                     	;# 
  1273  0FEF                     	;# 
  1274  0000                     	;# 
  1275  0001                     	;# 
  1276  0002                     	;# 
  1277  0003                     	;# 
  1278  0004                     	;# 
  1279  0005                     	;# 
  1280  0006                     	;# 
  1281  0007                     	;# 
  1282  0008                     	;# 
  1283  0009                     	;# 
  1284  000A                     	;# 
  1285  000B                     	;# 
  1286  000C                     	;# 
  1287  000D                     	;# 
  1288  000E                     	;# 
  1289  0010                     	;# 
  1290  0011                     	;# 
  1291  0012                     	;# 
  1292  0013                     	;# 
  1293  0014                     	;# 
  1294  0015                     	;# 
  1295  0016                     	;# 
  1296  0016                     	;# 
  1297  0017                     	;# 
  1298  0018                     	;# 
  1299  0019                     	;# 
  1300  001A                     	;# 
  1301  001A                     	;# 
  1302  001B                     	;# 
  1303  001B                     	;# 
  1304  001C                     	;# 
  1305  001D                     	;# 
  1306  001E                     	;# 
  1307  001F                     	;# 
  1308  008C                     	;# 
  1309  008D                     	;# 
  1310  008E                     	;# 
  1311  0090                     	;# 
  1312  0091                     	;# 
  1313  0092                     	;# 
  1314  0093                     	;# 
  1315  0094                     	;# 
  1316  0095                     	;# 
  1317  0096                     	;# 
  1318  0098                     	;# 
  1319  0099                     	;# 
  1320  009A                     	;# 
  1321  009B                     	;# 
  1322  009B                     	;# 
  1323  009C                     	;# 
  1324  009D                     	;# 
  1325  009E                     	;# 
  1326  009F                     	;# 
  1327  010C                     	;# 
  1328  010D                     	;# 
  1329  010E                     	;# 
  1330  0111                     	;# 
  1331  0112                     	;# 
  1332  0113                     	;# 
  1333  0114                     	;# 
  1334  0115                     	;# 
  1335  0116                     	;# 
  1336  0117                     	;# 
  1337  0118                     	;# 
  1338  0119                     	;# 
  1339  011C                     	;# 
  1340  018C                     	;# 
  1341  018D                     	;# 
  1342  018E                     	;# 
  1343  0191                     	;# 
  1344  0191                     	;# 
  1345  0192                     	;# 
  1346  0193                     	;# 
  1347  0193                     	;# 
  1348  0194                     	;# 
  1349  0195                     	;# 
  1350  0196                     	;# 
  1351  0199                     	;# 
  1352  0199                     	;# 
  1353  0199                     	;# 
  1354  019A                     	;# 
  1355  019A                     	;# 
  1356  019A                     	;# 
  1357  019B                     	;# 
  1358  019B                     	;# 
  1359  019B                     	;# 
  1360  019B                     	;# 
  1361  019B                     	;# 
  1362  019C                     	;# 
  1363  019C                     	;# 
  1364  019C                     	;# 
  1365  019D                     	;# 
  1366  019D                     	;# 
  1367  019D                     	;# 
  1368  019E                     	;# 
  1369  019E                     	;# 
  1370  019E                     	;# 
  1371  019F                     	;# 
  1372  019F                     	;# 
  1373  019F                     	;# 
  1374  019F                     	;# 
  1375  019F                     	;# 
  1376  020C                     	;# 
  1377  020D                     	;# 
  1378  020E                     	;# 
  1379  0211                     	;# 
  1380  0211                     	;# 
  1381  0212                     	;# 
  1382  0212                     	;# 
  1383  0213                     	;# 
  1384  0213                     	;# 
  1385  0214                     	;# 
  1386  0214                     	;# 
  1387  0215                     	;# 
  1388  0215                     	;# 
  1389  0215                     	;# 
  1390  0215                     	;# 
  1391  0216                     	;# 
  1392  0216                     	;# 
  1393  0217                     	;# 
  1394  0217                     	;# 
  1395  028C                     	;# 
  1396  028D                     	;# 
  1397  028E                     	;# 
  1398  0291                     	;# 
  1399  0291                     	;# 
  1400  0292                     	;# 
  1401  0293                     	;# 
  1402  0294                     	;# 
  1403  0298                     	;# 
  1404  0298                     	;# 
  1405  0299                     	;# 
  1406  029A                     	;# 
  1407  029B                     	;# 
  1408  029E                     	;# 
  1409  030C                     	;# 
  1410  030D                     	;# 
  1411  030E                     	;# 
  1412  038C                     	;# 
  1413  038D                     	;# 
  1414  038E                     	;# 
  1415  0391                     	;# 
  1416  0392                     	;# 
  1417  0393                     	;# 
  1418  0394                     	;# 
  1419  0395                     	;# 
  1420  0396                     	;# 
  1421  0397                     	;# 
  1422  0398                     	;# 
  1423  0399                     	;# 
  1424  040E                     	;# 
  1425  0413                     	;# 
  1426  0413                     	;# 
  1427  0414                     	;# 
  1428  0414                     	;# 
  1429  0415                     	;# 
  1430  0416                     	;# 
  1431  0417                     	;# 
  1432  0418                     	;# 
  1433  041A                     	;# 
  1434  041A                     	;# 
  1435  041B                     	;# 
  1436  041B                     	;# 
  1437  041C                     	;# 
  1438  041D                     	;# 
  1439  041E                     	;# 
  1440  041F                     	;# 
  1441  0493                     	;# 
  1442  0494                     	;# 
  1443  0495                     	;# 
  1444  0496                     	;# 
  1445  049A                     	;# 
  1446  049B                     	;# 
  1447  049C                     	;# 
  1448  049D                     	;# 
  1449  058C                     	;# 
  1450  058C                     	;# 
  1451  058D                     	;# 
  1452  058E                     	;# 
  1453  058E                     	;# 
  1454  058F                     	;# 
  1455  0590                     	;# 
  1456  0590                     	;# 
  1457  0591                     	;# 
  1458  0592                     	;# 
  1459  0592                     	;# 
  1460  0593                     	;# 
  1461  0594                     	;# 
  1462  0594                     	;# 
  1463  0595                     	;# 
  1464  0596                     	;# 
  1465  0596                     	;# 
  1466  0597                     	;# 
  1467  0598                     	;# 
  1468  0599                     	;# 
  1469  059A                     	;# 
  1470  059B                     	;# 
  1471  059B                     	;# 
  1472  059C                     	;# 
  1473  059D                     	;# 
  1474  060C                     	;# 
  1475  060C                     	;# 
  1476  060D                     	;# 
  1477  060E                     	;# 
  1478  060F                     	;# 
  1479  060F                     	;# 
  1480  0610                     	;# 
  1481  0611                     	;# 
  1482  0612                     	;# 
  1483  0613                     	;# 
  1484  0614                     	;# 
  1485  0617                     	;# 
  1486  0618                     	;# 
  1487  0619                     	;# 
  1488  061A                     	;# 
  1489  061B                     	;# 
  1490  061C                     	;# 
  1491  0691                     	;# 
  1492  0692                     	;# 
  1493  0693                     	;# 
  1494  0694                     	;# 
  1495  0695                     	;# 
  1496  0696                     	;# 
  1497  0697                     	;# 
  1498  0699                     	;# 
  1499  069A                     	;# 
  1500  0711                     	;# 
  1501  0712                     	;# 
  1502  0713                     	;# 
  1503  0714                     	;# 
  1504  0715                     	;# 
  1505  0718                     	;# 
  1506  0718                     	;# 
  1507  0719                     	;# 
  1508  071A                     	;# 
  1509  071A                     	;# 
  1510  071B                     	;# 
  1511  071C                     	;# 
  1512  071D                     	;# 
  1513  0791                     	;# 
  1514  0791                     	;# 
  1515  0792                     	;# 
  1516  0793                     	;# 
  1517  0793                     	;# 
  1518  0794                     	;# 
  1519  0795                     	;# 
  1520  0795                     	;# 
  1521  0796                     	;# 
  1522  0797                     	;# 
  1523  0797                     	;# 
  1524  0798                     	;# 
  1525  0799                     	;# 
  1526  079A                     	;# 
  1527  080C                     	;# 
  1528  080C                     	;# 
  1529  080D                     	;# 
  1530  080E                     	;# 
  1531  080E                     	;# 
  1532  080F                     	;# 
  1533  0810                     	;# 
  1534  0810                     	;# 
  1535  0811                     	;# 
  1536  0812                     	;# 
  1537  0812                     	;# 
  1538  0813                     	;# 
  1539  0814                     	;# 
  1540  0815                     	;# 
  1541  0816                     	;# 
  1542  0817                     	;# 
  1543  0818                     	;# 
  1544  0819                     	;# 
  1545  081A                     	;# 
  1546  081A                     	;# 
  1547  081B                     	;# 
  1548  081C                     	;# 
  1549  081C                     	;# 
  1550  081D                     	;# 
  1551  088C                     	;# 
  1552  088D                     	;# 
  1553  088E                     	;# 
  1554  088F                     	;# 
  1555  088F                     	;# 
  1556  0890                     	;# 
  1557  0891                     	;# 
  1558  0892                     	;# 
  1559  0893                     	;# 
  1560  0893                     	;# 
  1561  0894                     	;# 
  1562  0895                     	;# 
  1563  0896                     	;# 
  1564  0897                     	;# 
  1565  0897                     	;# 
  1566  0898                     	;# 
  1567  0899                     	;# 
  1568  0D8C                     	;# 
  1569  0D8C                     	;# 
  1570  0D8D                     	;# 
  1571  0D8E                     	;# 
  1572  0D8F                     	;# 
  1573  0D8F                     	;# 
  1574  0D90                     	;# 
  1575  0D91                     	;# 
  1576  0D92                     	;# 
  1577  0D92                     	;# 
  1578  0D93                     	;# 
  1579  0D94                     	;# 
  1580  0D95                     	;# 
  1581  0D95                     	;# 
  1582  0D96                     	;# 
  1583  0D97                     	;# 
  1584  0D98                     	;# 
  1585  0D99                     	;# 
  1586  0D9A                     	;# 
  1587  0D9B                     	;# 
  1588  0D9C                     	;# 
  1589  0D9D                     	;# 
  1590  0D9E                     	;# 
  1591  0D9E                     	;# 
  1592  0D9F                     	;# 
  1593  0DA0                     	;# 
  1594  0DA1                     	;# 
  1595  0DA1                     	;# 
  1596  0DA2                     	;# 
  1597  0DA3                     	;# 
  1598  0DA4                     	;# 
  1599  0DA4                     	;# 
  1600  0DA5                     	;# 
  1601  0DA6                     	;# 
  1602  0DA7                     	;# 
  1603  0DA7                     	;# 
  1604  0DA8                     	;# 
  1605  0DA9                     	;# 
  1606  0DAA                     	;# 
  1607  0DAB                     	;# 
  1608  0DAC                     	;# 
  1609  0DAD                     	;# 
  1610  0DAE                     	;# 
  1611  0DAF                     	;# 
  1612  0E0F                     	;# 
  1613  0E10                     	;# 
  1614  0E11                     	;# 
  1615  0E12                     	;# 
  1616  0E13                     	;# 
  1617  0E14                     	;# 
  1618  0E15                     	;# 
  1619  0E16                     	;# 
  1620  0E17                     	;# 
  1621  0E18                     	;# 
  1622  0E19                     	;# 
  1623  0E1A                     	;# 
  1624  0E1B                     	;# 
  1625  0E1C                     	;# 
  1626  0E1D                     	;# 
  1627  0E1E                     	;# 
  1628  0E1F                     	;# 
  1629  0E20                     	;# 
  1630  0E21                     	;# 
  1631  0E22                     	;# 
  1632  0E23                     	;# 
  1633  0E24                     	;# 
  1634  0E25                     	;# 
  1635  0E26                     	;# 
  1636  0E27                     	;# 
  1637  0E28                     	;# 
  1638  0E29                     	;# 
  1639  0E2A                     	;# 
  1640  0E2B                     	;# 
  1641  0E2C                     	;# 
  1642  0E2D                     	;# 
  1643  0E2E                     	;# 
  1644  0E90                     	;# 
  1645  0E91                     	;# 
  1646  0E92                     	;# 
  1647  0E94                     	;# 
  1648  0E95                     	;# 
  1649  0E9C                     	;# 
  1650  0E9D                     	;# 
  1651  0E9E                     	;# 
  1652  0E9F                     	;# 
  1653  0EA0                     	;# 
  1654  0EA1                     	;# 
  1655  0EA2                     	;# 
  1656  0EA3                     	;# 
  1657  0EA4                     	;# 
  1658  0EA5                     	;# 
  1659  0EA6                     	;# 
  1660  0EA7                     	;# 
  1661  0F0F                     	;# 
  1662  0F10                     	;# 
  1663  0F11                     	;# 
  1664  0F12                     	;# 
  1665  0F13                     	;# 
  1666  0F14                     	;# 
  1667  0F15                     	;# 
  1668  0F16                     	;# 
  1669  0F17                     	;# 
  1670  0F18                     	;# 
  1671  0F19                     	;# 
  1672  0F1A                     	;# 
  1673  0F1B                     	;# 
  1674  0F1C                     	;# 
  1675  0F1D                     	;# 
  1676  0F1E                     	;# 
  1677  0F1F                     	;# 
  1678  0F20                     	;# 
  1679  0F21                     	;# 
  1680  0F22                     	;# 
  1681  0F23                     	;# 
  1682  0FE4                     	;# 
  1683  0FE5                     	;# 
  1684  0FE6                     	;# 
  1685  0FE7                     	;# 
  1686  0FE8                     	;# 
  1687  0FE9                     	;# 
  1688  0FEA                     	;# 
  1689  0FEB                     	;# 
  1690  0FED                     	;# 
  1691  0FEE                     	;# 
  1692  0FEF                     	;# 
  1693                           
  1694                           	psect	stringtext
  1695  0800                     __pstringtext:	
  1696  0800                     _USIDHIGHREV:	
  1697  0800  345C               	retlw	92
  1698  0801  3407               	retlw	7
  1699  0802  3440               	retlw	64
  1700  0803  345C               	retlw	92
  1701  0804  3490               	retlw	144
  1702  0805  3441               	retlw	65
  1703  0806  345C               	retlw	92
  1704  0807  3410               	retlw	16
  1705  0808  347F               	retlw	127
  1706  0809  345C               	retlw	92
  1707  080A  3490               	retlw	144
  1708  080B  3400               	retlw	0
  1709  080C  345C               	retlw	92
  1710  080D  3410               	retlw	16
  1711  080E  3401               	retlw	1
  1712  080F  345C               	retlw	92
  1713  0810  3410               	retlw	16
  1714  0811  3402               	retlw	2
  1715  0812  345C               	retlw	92
  1716  0813  3410               	retlw	16
  1717  0814  3404               	retlw	4
  1718  0815  345C               	retlw	92
  1719  0816  3410               	retlw	16
  1720  0817  3408               	retlw	8
  1721  0818  345C               	retlw	92
  1722  0819  3410               	retlw	16
  1723  081A  3410               	retlw	16
  1724  081B  345C               	retlw	92
  1725  081C  3410               	retlw	16
  1726  081D  3420               	retlw	32
  1727  081E  345C               	retlw	92
  1728  081F  3410               	retlw	16
  1729  0820  3440               	retlw	64
  1730  0821                     __end_of_USIDHIGHREV:	
  1731  0821                     _USIDLOWREV:	
  1732  0821  344C               	retlw	76
  1733  0822  3427               	retlw	39
  1734  0823  3440               	retlw	64
  1735  0824  344C               	retlw	76
  1736  0825  34B0               	retlw	176
  1737  0826  3441               	retlw	65
  1738  0827  344C               	retlw	76
  1739  0828  3430               	retlw	48
  1740  0829  347F               	retlw	127
  1741  082A  344C               	retlw	76
  1742  082B  34B0               	retlw	176
  1743  082C  3400               	retlw	0
  1744  082D  344C               	retlw	76
  1745  082E  3430               	retlw	48
  1746  082F  3401               	retlw	1
  1747  0830  344C               	retlw	76
  1748  0831  3430               	retlw	48
  1749  0832  3402               	retlw	2
  1750  0833  344C               	retlw	76
  1751  0834  3430               	retlw	48
  1752  0835  3404               	retlw	4
  1753  0836  344C               	retlw	76
  1754  0837  3430               	retlw	48
  1755  0838  3408               	retlw	8
  1756  0839  344C               	retlw	76
  1757  083A  3430               	retlw	48
  1758  083B  3410               	retlw	16
  1759  083C  344C               	retlw	76
  1760  083D  3430               	retlw	48
  1761  083E  3420               	retlw	32
  1762  083F  344C               	retlw	76
  1763  0840  3430               	retlw	48
  1764  0841  3440               	retlw	64
  1765  0842                     __end_of_USIDLOWREV:	
  1766  0842                     _DacOutput:	
  1767  0842  342B               	retlw	43
  1768  0843  3448               	retlw	72
  1769  0844  3456               	retlw	86
  1770  0845  3464               	retlw	100
  1771  0846                     __end_of_DacOutput:	
  1772  000E                     _PORTC	set	14
  1773  0095                     _OPTION_REGbits	set	149
  1774  0099                     _OSCCON	set	153
  1775  009A                     _OSCSTAT	set	154
  1776  0098                     _OSCTUNE	set	152
  1777  008C                     _TRISA	set	140
  1778  008D                     _TRISB	set	141
  1779  008E                     _TRISC	set	142
  1780  0118                     _DAC1CON0	set	280
  1781  0119                     _DAC1CON1	set	281
  1782  010C                     _LATA	set	268
  1783  010D                     _LATB	set	269
  1784  010E                     _LATC	set	270
  1785  0861                     _LATA1	set	2145
  1786  0862                     _LATA2	set	2146
  1787  0864                     _LATA4	set	2148
  1788  086C                     _LATB4	set	2156
  1789  086E                     _LATB6	set	2158
  1790  086F                     _LATB7	set	2159
  1791  018C                     _ANSELA	set	396
  1792  018D                     _ANSELB	set	397
  1793  018E                     _ANSELC	set	398
  1794  020D                     _WPUB	set	525
  1795  020E                     _WPUC	set	526
  1796                           
  1797                           ; #config settings
  1798  0000                     
  1799                           	psect	cinit
  1800  07F9                     start_initialization:	
  1801  07F9                     __initialization:	
  1802                           
  1803                           ; Clear objects allocated to COMMON
  1804  07F9  01FB               	clrf	__pbssCOMMON& (0+127)
  1805  07FA  01FC               	clrf	(__pbssCOMMON+1)& (0+127)
  1806  07FB  01FD               	clrf	(__pbssCOMMON+2)& (0+127)
  1807                           
  1808                           ; Clear objects allocated to BANK0
  1809  07FC  01A0               	clrf	__pbssBANK0& (0+127)
  1810  07FD                     end_of_initialization:	
  1811                           ;End of C runtime variable initialization code
  1812                           
  1813  07FD                     __end_of__initialization:	
  1814  07FD  0020               	movlb	0
  1815  07FE  3186  2EBB         	ljmp	_main	;jump to C main() function
  1816                           
  1817                           	psect	bssCOMMON
  1818  007B                     __pbssCOMMON:	
  1819  007B                     _Byte2:	
  1820  007B                     	ds	1
  1821  007C                     _Byte3:	
  1822  007C                     	ds	1
  1823  007D                     _readDummy:	
  1824  007D                     	ds	1
  1825                           
  1826                           	psect	bssBANK0
  1827  0020                     __pbssBANK0:	
  1828  0020                     _Byte1:	
  1829  0020                     	ds	1
  1830                           
  1831                           	psect	cstackCOMMON
  1832  0070                     __pcstackCOMMON:	
  1833  0070                     ?_OSCILLATOR_Initialize:	
  1834  0070                     ??_OSCILLATOR_Initialize:	
  1835                           ; 0 bytes @ 0x0
  1836                           
  1837  0070                     ?_DAC1_Initialize:	
  1838                           ; 0 bytes @ 0x0
  1839                           
  1840  0070                     ??_DAC1_Initialize:	
  1841                           ; 0 bytes @ 0x0
  1842                           
  1843  0070                     ?_DAC1_SetOutput:	
  1844                           ; 0 bytes @ 0x0
  1845                           
  1846  0070                     ??_DAC1_SetOutput:	
  1847                           ; 0 bytes @ 0x0
  1848                           
  1849  0070                     ?_PIN_MANAGER_Initialize:	
  1850                           ; 0 bytes @ 0x0
  1851                           
  1852  0070                     ??_PIN_MANAGER_Initialize:	
  1853                           ; 0 bytes @ 0x0
  1854                           
  1855  0070                     ?_SYSTEM_Initialize:	
  1856                           ; 0 bytes @ 0x0
  1857                           
  1858  0070                     ??_SYSTEM_Initialize:	
  1859                           ; 0 bytes @ 0x0
  1860                           
  1861  0070                     ?_MIPITRANSFER:	
  1862                           ; 0 bytes @ 0x0
  1863                           
  1864  0070                     ??_MIPITRANSFER:	
  1865                           ; 0 bytes @ 0x0
  1866                           
  1867  0070                     ?_main:	
  1868                           ; 0 bytes @ 0x0
  1869                           
  1870  0070                     DAC1_SetOutput@inputData:	
  1871                           ; 0 bytes @ 0x0
  1872                           
  1873                           
  1874                           ; 1 bytes @ 0x0
  1875  0070                     	ds	3
  1876  0073                     MIPITRANSFER@k:	
  1877                           
  1878                           ; 1 bytes @ 0x3
  1879  0073                     	ds	1
  1880  0074                     MIPITRANSFER@j:	
  1881                           
  1882                           ; 1 bytes @ 0x4
  1883  0074                     	ds	1
  1884  0075                     MIPITRANSFER@j_109:	
  1885                           
  1886                           ; 1 bytes @ 0x5
  1887  0075                     	ds	1
  1888  0076                     MIPITRANSFER@j_110:	
  1889                           
  1890                           ; 1 bytes @ 0x6
  1891  0076                     	ds	1
  1892  0077                     MIPITRANSFER@j_112:	
  1893                           
  1894                           ; 1 bytes @ 0x7
  1895  0077                     	ds	1
  1896  0078                     MIPITRANSFER@i:	
  1897                           
  1898                           ; 1 bytes @ 0x8
  1899  0078                     	ds	1
  1900  0079                     MIPITRANSFER@i_111:	
  1901                           
  1902                           ; 1 bytes @ 0x9
  1903  0079                     	ds	1
  1904  007A                     ??_main:	
  1905                           
  1906                           ; 0 bytes @ 0xA
  1907  007A                     	ds	1
  1908                           
  1909                           	psect	maintext
  1910  06BB                     __pmaintext:	
  1911 ;;
  1912 ;;Main: autosize = 0, tempsize = 1, incstack = 0, save=0
  1913 ;;
  1914 ;; *************** function _main *****************
  1915 ;; Defined at:
  1916 ;;		line 131 in file "main.c"
  1917 ;; Parameters:    Size  Location     Type
  1918 ;;		None
  1919 ;; Auto vars:     Size  Location     Type
  1920 ;;		None
  1921 ;; Return value:  Size  Location     Type
  1922 ;;		None               void
  1923 ;; Registers used:
  1924 ;;		wreg, fsr0l, fsr0h, status,2, status,0, pclath, cstack
  1925 ;; Tracked objects:
  1926 ;;		On entry : B1F/0
  1927 ;;		On exit  : 0/0
  1928 ;;		Unchanged: 0/0
  1929 ;; Data sizes:     COMMON   BANK0   BANK1   BANK2   BANK3   BANK4   BANK5   BANK6
  1930 ;;      Params:         0       0       0       0       0       0       0       0
  1931 ;;      Locals:         0       0       0       0       0       0       0       0
  1932 ;;      Temps:          1       0       0       0       0       0       0       0
  1933 ;;      Totals:         1       0       0       0       0       0       0       0
  1934 ;;Total ram usage:        1 bytes
  1935 ;; Hardware stack levels required when called:    2
  1936 ;; This function calls:
  1937 ;;		_DAC1_Initialize
  1938 ;;		_DAC1_SetOutput
  1939 ;;		_MIPITRANSFER
  1940 ;;		_PIN_MANAGER_Initialize
  1941 ;;		_SYSTEM_Initialize
  1942 ;; This function is called by:
  1943 ;;		Startup code after reset
  1944 ;; This function uses a non-reentrant model
  1945 ;;
  1946                           
  1947                           
  1948                           ;psect for function _main
  1949  06BB                     _main:	
  1950                           
  1951                           ;main.c: 133: SYSTEM_Initialize();
  1952                           
  1953                           ;incstack = 0
  1954                           ; Regs used in _main: [wreg-fsr0h+status,2+status,0+pclath+cstack]
  1955  06BB  3185  25C7  3186   	fcall	_SYSTEM_Initialize
  1956                           
  1957                           ;main.c: 134: DAC1_Initialize();
  1958  06BE  3185  25BC  3186   	fcall	_DAC1_Initialize
  1959                           
  1960                           ;main.c: 135: PIN_MANAGER_Initialize();
  1961  06C1  3185  25D0  3186   	fcall	_PIN_MANAGER_Initialize
  1962                           
  1963                           ;main.c: 137: DAC1_SetOutput(0);
  1964  06C4  3000               	movlw	0
  1965  06C5  3185  25B7  3186   	fcall	_DAC1_SetOutput
  1966                           
  1967                           ;main.c: 138: do { LATA1 = 0; } while(0);
  1968  06C8  0022               	movlb	2	; select bank2
  1969  06C9  108C               	bcf	12,1	;volatile
  1970                           
  1971                           ;main.c: 139: do { LATA4 = 0; } while(0);
  1972  06CA  120C               	bcf	12,4	;volatile
  1973                           
  1974                           ;main.c: 140: do { LATA2 = 0; } while(0);
  1975  06CB  110C               	bcf	12,2	;volatile
  1976                           
  1977                           ;main.c: 141: do { LATB4 = 0; } while(0);
  1978  06CC  120D               	bcf	13,4	;volatile
  1979  06CD                     l963:	
  1980                           ;main.c: 143: while ((PORTC & 0xC0) != 0xC0){}
  1981                           
  1982                           ;main.c: 142: while (1) {
  1983                           
  1984  06CD  30C0               	movlw	192
  1985  06CE  0020               	movlb	0	; select bank0
  1986  06CF  050E               	andwf	14,w	;volatile
  1987  06D0  00FA               	movwf	??_main
  1988  06D1  30C0               	movlw	192
  1989  06D2  067A               	xorwf	??_main,w
  1990  06D3  1D03               	btfss	3,2
  1991  06D4  2ECD               	goto	l963
  1992                           
  1993                           ;main.c: 144: Byte1 = PORTC;
  1994  06D5  080E               	movf	14,w	;volatile
  1995  06D6  00FA               	movwf	??_main
  1996  06D7  087A               	movf	??_main,w
  1997  06D8  00A0               	movwf	_Byte1
  1998  06D9                     l967:	
  1999                           ;main.c: 145: while ((PORTC & 0xC0) != 0x40){}
  2000                           
  2001  06D9  30C0               	movlw	192
  2002  06DA  050E               	andwf	14,w	;volatile
  2003  06DB  00FA               	movwf	??_main
  2004  06DC  3040               	movlw	64
  2005  06DD  067A               	xorwf	??_main,w
  2006  06DE  1D03               	btfss	3,2
  2007  06DF  2ED9               	goto	l967
  2008                           
  2009                           ;main.c: 146: Byte2 = PORTC & 0x3F;
  2010  06E0  080E               	movf	14,w	;volatile
  2011  06E1  393F               	andlw	63
  2012  06E2  00FA               	movwf	??_main
  2013  06E3  087A               	movf	??_main,w
  2014  06E4  00FB               	movwf	_Byte2
  2015  06E5                     l971:	
  2016                           ;main.c: 147: while ((PORTC & 0xC0) != 0x80){}
  2017                           
  2018  06E5  30C0               	movlw	192
  2019  06E6  050E               	andwf	14,w	;volatile
  2020  06E7  00FA               	movwf	??_main
  2021  06E8  3080               	movlw	128
  2022  06E9  067A               	xorwf	??_main,w
  2023  06EA  1D03               	btfss	3,2
  2024  06EB  2EE5               	goto	l971
  2025                           
  2026                           ;main.c: 148: Byte3 = PORTC & 0x3F;
  2027  06EC  080E               	movf	14,w	;volatile
  2028  06ED  393F               	andlw	63
  2029  06EE  00FA               	movwf	??_main
  2030  06EF  087A               	movf	??_main,w
  2031  06F0  00FC               	movwf	_Byte3
  2032                           
  2033                           ;main.c: 149: if (((Byte1 & 0x10) == 0x10) && ((Byte1 & 0x0C) != 0x00))
  2034  06F1  1E20               	btfss	_Byte1,4
  2035  06F2  2F01               	goto	l981
  2036  06F3  0820               	movf	_Byte1,w
  2037  06F4  390C               	andlw	12
  2038  06F5  1903               	btfsc	3,2
  2039  06F6  2F01               	goto	l981
  2040                           
  2041                           ;main.c: 150: DAC1_SetOutput(DacOutput[(Byte1 & 0x03)]);
  2042  06F7  0820               	movf	_Byte1,w
  2043  06F8  3903               	andlw	3
  2044  06F9  3E42               	addlw	low (_DacOutput| (0+32768))
  2045  06FA  0084               	movwf	4
  2046  06FB  3088               	movlw	high (_DacOutput| (0+32768))
  2047  06FC  1803               	skipnc
  2048  06FD  3E01               	addlw	1
  2049  06FE  0085               	movwf	5
  2050  06FF  0800               	movf	0,w	;code access
  2051  0700  2F02               	goto	L1
  2052  0701                     l981:	
  2053                           
  2054                           ;main.c: 151: else
  2055                           ;main.c: 152: DAC1_SetOutput(0);
  2056  0701  3000               	movlw	0
  2057  0702                     L1:	
  2058  0702  3185  25B7  3186   	fcall	_DAC1_SetOutput
  2059                           
  2060                           ;main.c: 154: if ((Byte1 & 0x3C) == 0x20){
  2061  0705  303C               	movlw	60
  2062  0706  0020               	movlb	0	; select bank0
  2063  0707  0520               	andwf	_Byte1,w
  2064  0708  00FA               	movwf	??_main
  2065  0709  3020               	movlw	32
  2066  070A  067A               	xorwf	??_main,w
  2067  070B  1903               	btfsc	3,2
  2068  070C  2F51               	goto	l168
  2069                           
  2070                           ;main.c: 157: }else{ if (((Byte1 & 0x30) != 0x00) && ((Byte1 & 0x0C) != 0x00)){
  2071                           
  2072                           ;main.c: 156: do { LATB4 = 1; } while(0);
  2073                           
  2074                           ;main.c: 155: do { LATA2 = 0; } while(0);
  2075  070D  0020               	movlb	0	; select bank0
  2076  070E  0820               	movf	_Byte1,w
  2077  070F  3930               	andlw	48
  2078  0710  1903               	btfsc	3,2
  2079  0711  2F55               	goto	l173
  2080  0712  0820               	movf	_Byte1,w
  2081  0713  390C               	andlw	12
  2082  0714  1903               	btfsc	3,2
  2083  0715  2F55               	goto	l173
  2084                           
  2085                           ;main.c: 158: if ((Byte2 == 5) || (Byte2 == 8) || (Byte2 == 12) || (Byte2 == 13) || (Byt
      +                          e2 == 20) || (Byte2 == 26) || (Byte2 == 29) || (Byte3 == 5) || (Byte3 == 8) || (Byte3 ==
      +                           12) || (Byte3 == 13) || (Byte3 == 20) || (Byte3 == 26) || (Byte3 == 29)){
  2086  0716  3005               	movlw	5
  2087  0717  067B               	xorwf	_Byte2,w
  2088  0718  1903               	btfsc	3,2
  2089  0719  2F4E               	goto	l163
  2090  071A  3008               	movlw	8
  2091  071B  067B               	xorwf	_Byte2,w
  2092  071C  1903               	btfsc	3,2
  2093  071D  2F4E               	goto	l163
  2094  071E  300C               	movlw	12
  2095  071F  067B               	xorwf	_Byte2,w
  2096  0720  1903               	btfsc	3,2
  2097  0721  2F4E               	goto	l163
  2098  0722  300D               	movlw	13
  2099  0723  067B               	xorwf	_Byte2,w
  2100  0724  1903               	btfsc	3,2
  2101  0725  2F4E               	goto	l163
  2102  0726  3014               	movlw	20
  2103  0727  067B               	xorwf	_Byte2,w
  2104  0728  1903               	btfsc	3,2
  2105  0729  2F4E               	goto	l163
  2106  072A  301A               	movlw	26
  2107  072B  067B               	xorwf	_Byte2,w
  2108  072C  1903               	btfsc	3,2
  2109  072D  2F4E               	goto	l163
  2110  072E  301D               	movlw	29
  2111  072F  067B               	xorwf	_Byte2,w
  2112  0730  1903               	btfsc	3,2
  2113  0731  2F4E               	goto	l163
  2114  0732  3005               	movlw	5
  2115  0733  067C               	xorwf	_Byte3,w
  2116  0734  1903               	btfsc	3,2
  2117  0735  2F4E               	goto	l163
  2118  0736  3008               	movlw	8
  2119  0737  067C               	xorwf	_Byte3,w
  2120  0738  1903               	btfsc	3,2
  2121  0739  2F4E               	goto	l163
  2122  073A  300C               	movlw	12
  2123  073B  067C               	xorwf	_Byte3,w
  2124  073C  1903               	btfsc	3,2
  2125  073D  2F4E               	goto	l163
  2126  073E  300D               	movlw	13
  2127  073F  067C               	xorwf	_Byte3,w
  2128  0740  1903               	btfsc	3,2
  2129  0741  2F4E               	goto	l163
  2130  0742  3014               	movlw	20
  2131  0743  067C               	xorwf	_Byte3,w
  2132  0744  1903               	btfsc	3,2
  2133  0745  2F4E               	goto	l163
  2134  0746  301A               	movlw	26
  2135  0747  067C               	xorwf	_Byte3,w
  2136  0748  1903               	btfsc	3,2
  2137  0749  2F4E               	goto	l163
  2138  074A  301D               	movlw	29
  2139  074B  067C               	xorwf	_Byte3,w
  2140  074C  1D03               	btfss	3,2
  2141  074D  2F51               	goto	l168
  2142  074E                     l163:	
  2143                           ;main.c: 159: do { LATA2 = 1; } while(0);
  2144                           
  2145  074E  0022               	movlb	2	; select bank2
  2146  074F  150C               	bsf	12,2	;volatile
  2147                           
  2148                           ;main.c: 160: do { LATB4 = 1; } while(0);
  2149  0750  2F53               	goto	l170
  2150  0751                     l168:	
  2151                           ;main.c: 162: do { LATA2 = 0; } while(0);
  2152                           
  2153                           ;main.c: 161: }else{
  2154                           
  2155  0751  0022               	movlb	2	; select bank2
  2156  0752  110C               	bcf	12,2	;volatile
  2157  0753                     l170:	
  2158                           ;main.c: 163: do { LATB4 = 1; } while(0);
  2159                           
  2160  0753  160D               	bsf	13,4	;volatile
  2161                           
  2162                           ;main.c: 164: }
  2163                           ;main.c: 165: }else{
  2164  0754  2F58               	goto	l1017
  2165  0755                     l173:	
  2166                           ;main.c: 166: do { LATA2 = 0; } while(0);
  2167                           
  2168  0755  0022               	movlb	2	; select bank2
  2169  0756  110C               	bcf	12,2	;volatile
  2170                           
  2171                           ;main.c: 167: do { LATB4 = 0; } while(0);
  2172  0757  120D               	bcf	13,4	;volatile
  2173  0758                     l1017:	
  2174                           
  2175                           ;main.c: 168: }
  2176                           ;main.c: 169: }
  2177                           ;main.c: 171: if (Byte2 == 3 && Byte3 == 7){
  2178  0758  3003               	movlw	3
  2179  0759  067B               	xorwf	_Byte2,w
  2180  075A  1D03               	btfss	3,2
  2181  075B  2F63               	goto	l1021
  2182  075C  3007               	movlw	7
  2183  075D  067C               	xorwf	_Byte3,w
  2184  075E  1D03               	btfss	3,2
  2185  075F  2F63               	goto	l1021
  2186                           
  2187                           ;main.c: 172: do { LATA1 = 0; } while(0);
  2188  0760  108C               	bcf	12,1	;volatile
  2189                           
  2190                           ;main.c: 173: do { LATA4 = 1; } while(0);
  2191  0761  160C               	bsf	12,4	;volatile
  2192                           
  2193                           ;main.c: 174: }
  2194  0762  2F99               	goto	l1049
  2195  0763                     l1021:	
  2196                           
  2197                           ;main.c: 175: else{ if ((Byte2 == 7 && Byte3 == 0) || (Byte2 == 30 && Byte3 == 0) || (By
      +                          te2 == 41 && Byte3 == 0) || (Byte2 == 5 && Byte3 == 30) || (Byte2 == 7 && Byte3 == 20) |
      +                          | (Byte2 == 12 && Byte3 == 30) || (Byte2 == 41 && Byte3 == 41)){
  2198  0763  3007               	movlw	7
  2199  0764  067B               	xorwf	_Byte2,w
  2200  0765  1903               	btfsc	3,2
  2201  0766  087C               	movf	_Byte3,w
  2202  0767  1903               	btfsc	3,2
  2203  0768  2F95               	goto	l198
  2204  0769  301E               	movlw	30
  2205  076A  067B               	xorwf	_Byte2,w
  2206  076B  1903               	btfsc	3,2
  2207  076C  087C               	movf	_Byte3,w
  2208  076D  1903               	btfsc	3,2
  2209  076E  2F95               	goto	l198
  2210  076F  3029               	movlw	41
  2211  0770  067B               	xorwf	_Byte2,w
  2212  0771  1903               	btfsc	3,2
  2213  0772  087C               	movf	_Byte3,w
  2214  0773  1903               	btfsc	3,2
  2215  0774  2F95               	goto	l198
  2216  0775  3005               	movlw	5
  2217  0776  067B               	xorwf	_Byte2,w
  2218  0777  1D03               	btfss	3,2
  2219  0778  2F7D               	goto	l1037
  2220  0779  301E               	movlw	30
  2221  077A  067C               	xorwf	_Byte3,w
  2222  077B  1903               	btfsc	3,2
  2223  077C  2F95               	goto	l198
  2224  077D                     l1037:	
  2225  077D  3007               	movlw	7
  2226  077E  067B               	xorwf	_Byte2,w
  2227  077F  1D03               	btfss	3,2
  2228  0780  2F85               	goto	l1041
  2229  0781  3014               	movlw	20
  2230  0782  067C               	xorwf	_Byte3,w
  2231  0783  1903               	btfsc	3,2
  2232  0784  2F95               	goto	l198
  2233  0785                     l1041:	
  2234  0785  300C               	movlw	12
  2235  0786  067B               	xorwf	_Byte2,w
  2236  0787  1D03               	btfss	3,2
  2237  0788  2F8D               	goto	l1045
  2238  0789  301E               	movlw	30
  2239  078A  067C               	xorwf	_Byte3,w
  2240  078B  1903               	btfsc	3,2
  2241  078C  2F95               	goto	l198
  2242  078D                     l1045:	
  2243  078D  3029               	movlw	41
  2244  078E  067B               	xorwf	_Byte2,w
  2245  078F  1D03               	btfss	3,2
  2246  0790  2F97               	goto	l203
  2247  0791  3029               	movlw	41
  2248  0792  067C               	xorwf	_Byte3,w
  2249  0793  1D03               	btfss	3,2
  2250  0794  2F97               	goto	l203
  2251  0795                     l198:	
  2252                           ;main.c: 176: do { LATA1 = 1; } while(0);
  2253                           
  2254  0795  148C               	bsf	12,1	;volatile
  2255  0796  2F98               	goto	l205
  2256  0797                     l203:	
  2257                           ;main.c: 179: else{
  2258                           ;main.c: 180: do { LATA1 = 0; } while(0);
  2259                           
  2260                           ;main.c: 178: }
  2261                           
  2262                           ;main.c: 177: do { LATA4 = 0; } while(0);
  2263                           
  2264  0797  108C               	bcf	12,1	;volatile
  2265  0798                     l205:	
  2266                           ;main.c: 181: do { LATA4 = 0; } while(0);
  2267                           
  2268  0798  120C               	bcf	12,4	;volatile
  2269  0799                     l1049:	
  2270                           
  2271                           ;main.c: 182: }
  2272                           ;main.c: 183: }
  2273                           ;main.c: 187: if ((Byte2 == 5) || (Byte3 == 5)){
  2274  0799  3005               	movlw	5
  2275  079A  067B               	xorwf	_Byte2,w
  2276  079B  1903               	btfsc	3,2
  2277  079C  2FA1               	goto	l1053
  2278  079D  3005               	movlw	5
  2279  079E  067C               	xorwf	_Byte3,w
  2280  079F  1D03               	btfss	3,2
  2281  07A0  2FA6               	goto	l1055
  2282  07A1                     l1053:	
  2283                           
  2284                           ;main.c: 188: MIPITRANSFER (3);
  2285  07A1  3003               	movlw	3
  2286  07A2  3185  25EE  3186   	fcall	_MIPITRANSFER
  2287                           
  2288                           ;main.c: 189: }else{ if ((Byte2 == 8) || (Byte3 == 8)){
  2289  07A5  2ECD               	goto	l963
  2290  07A6                     l1055:	
  2291  07A6  3008               	movlw	8
  2292  07A7  067B               	xorwf	_Byte2,w
  2293  07A8  1903               	btfsc	3,2
  2294  07A9  2FAE               	goto	l1059
  2295  07AA  3008               	movlw	8
  2296  07AB  067C               	xorwf	_Byte3,w
  2297  07AC  1D03               	btfss	3,2
  2298  07AD  2FB3               	goto	l1061
  2299  07AE                     l1059:	
  2300                           
  2301                           ;main.c: 190: MIPITRANSFER (6);
  2302  07AE  3006               	movlw	6
  2303  07AF  3185  25EE  3186   	fcall	_MIPITRANSFER
  2304                           
  2305                           ;main.c: 191: }else{ if ((Byte2 == 12) || (Byte3 == 12)){
  2306  07B2  2ECD               	goto	l963
  2307  07B3                     l1061:	
  2308  07B3  300C               	movlw	12
  2309  07B4  067B               	xorwf	_Byte2,w
  2310  07B5  1903               	btfsc	3,2
  2311  07B6  2FBB               	goto	l1065
  2312  07B7  300C               	movlw	12
  2313  07B8  067C               	xorwf	_Byte3,w
  2314  07B9  1D03               	btfss	3,2
  2315  07BA  2FC0               	goto	l1067
  2316  07BB                     l1065:	
  2317                           
  2318                           ;main.c: 192: MIPITRANSFER (9);
  2319  07BB  3009               	movlw	9
  2320  07BC  3185  25EE  3186   	fcall	_MIPITRANSFER
  2321                           
  2322                           ;main.c: 193: }else{ if ((Byte2 == 13) || (Byte3 == 13)){
  2323  07BF  2ECD               	goto	l963
  2324  07C0                     l1067:	
  2325  07C0  300D               	movlw	13
  2326  07C1  067B               	xorwf	_Byte2,w
  2327  07C2  1903               	btfsc	3,2
  2328  07C3  2FC8               	goto	l1071
  2329  07C4  300D               	movlw	13
  2330  07C5  067C               	xorwf	_Byte3,w
  2331  07C6  1D03               	btfss	3,2
  2332  07C7  2FCD               	goto	l1073
  2333  07C8                     l1071:	
  2334                           
  2335                           ;main.c: 194: MIPITRANSFER (12);
  2336  07C8  300C               	movlw	12
  2337  07C9  3185  25EE  3186   	fcall	_MIPITRANSFER
  2338                           
  2339                           ;main.c: 195: }else{ if ((Byte2 == 20) || (Byte3 == 20)){
  2340  07CC  2ECD               	goto	l963
  2341  07CD                     l1073:	
  2342  07CD  3014               	movlw	20
  2343  07CE  067B               	xorwf	_Byte2,w
  2344  07CF  1903               	btfsc	3,2
  2345  07D0  2FD5               	goto	l1077
  2346  07D1  3014               	movlw	20
  2347  07D2  067C               	xorwf	_Byte3,w
  2348  07D3  1D03               	btfss	3,2
  2349  07D4  2FDA               	goto	l1079
  2350  07D5                     l1077:	
  2351                           
  2352                           ;main.c: 196: MIPITRANSFER (15);
  2353  07D5  300F               	movlw	15
  2354  07D6  3185  25EE  3186   	fcall	_MIPITRANSFER
  2355                           
  2356                           ;main.c: 197: }else{ if ((Byte2 == 26) || (Byte3 == 26)){
  2357  07D9  2ECD               	goto	l963
  2358  07DA                     l1079:	
  2359  07DA  301A               	movlw	26
  2360  07DB  067B               	xorwf	_Byte2,w
  2361  07DC  1903               	btfsc	3,2
  2362  07DD  2FE2               	goto	l1083
  2363  07DE  301A               	movlw	26
  2364  07DF  067C               	xorwf	_Byte3,w
  2365  07E0  1D03               	btfss	3,2
  2366  07E1  2FE7               	goto	l1085
  2367  07E2                     l1083:	
  2368                           
  2369                           ;main.c: 198: MIPITRANSFER (18);
  2370  07E2  3012               	movlw	18
  2371  07E3  3185  25EE  3186   	fcall	_MIPITRANSFER
  2372                           
  2373                           ;main.c: 199: }else{ if ((Byte2 == 29) || (Byte3 == 29)){
  2374  07E6  2ECD               	goto	l963
  2375  07E7                     l1085:	
  2376  07E7  301D               	movlw	29
  2377  07E8  067B               	xorwf	_Byte2,w
  2378  07E9  1903               	btfsc	3,2
  2379  07EA  2FEF               	goto	l1089
  2380  07EB  301D               	movlw	29
  2381  07EC  067C               	xorwf	_Byte3,w
  2382  07ED  1D03               	btfss	3,2
  2383  07EE  2FF4               	goto	l1091
  2384  07EF                     l1089:	
  2385                           
  2386                           ;main.c: 200: MIPITRANSFER (21);
  2387  07EF  3015               	movlw	21
  2388  07F0  3185  25EE  3186   	fcall	_MIPITRANSFER
  2389                           
  2390                           ;main.c: 201: }else{
  2391  07F3  2ECD               	goto	l963
  2392  07F4                     l1091:	
  2393                           
  2394                           ;main.c: 202: MIPITRANSFER (30);
  2395  07F4  301E               	movlw	30
  2396  07F5  3185  25EE  3186   	fcall	_MIPITRANSFER
  2397  07F8  2ECD               	goto	l963
  2398  07F9                     __end_of_main:	
  2399                           
  2400                           	psect	text1
  2401  05C7                     __ptext1:	
  2402 ;; *************** function _SYSTEM_Initialize *****************
  2403 ;; Defined at:
  2404 ;;		line 75 in file "mcc_generated_files/mcc.c"
  2405 ;; Parameters:    Size  Location     Type
  2406 ;;		None
  2407 ;; Auto vars:     Size  Location     Type
  2408 ;;		None
  2409 ;; Return value:  Size  Location     Type
  2410 ;;		None               void
  2411 ;; Registers used:
  2412 ;;		wreg, status,2, status,0, pclath, cstack
  2413 ;; Tracked objects:
  2414 ;;		On entry : 0/0
  2415 ;;		On exit  : 0/0
  2416 ;;		Unchanged: 0/0
  2417 ;; Data sizes:     COMMON   BANK0   BANK1   BANK2   BANK3   BANK4   BANK5   BANK6
  2418 ;;      Params:         0       0       0       0       0       0       0       0
  2419 ;;      Locals:         0       0       0       0       0       0       0       0
  2420 ;;      Temps:          0       0       0       0       0       0       0       0
  2421 ;;      Totals:         0       0       0       0       0       0       0       0
  2422 ;;Total ram usage:        0 bytes
  2423 ;; Hardware stack levels used:    1
  2424 ;; Hardware stack levels required when called:    1
  2425 ;; This function calls:
  2426 ;;		_DAC1_Initialize
  2427 ;;		_OSCILLATOR_Initialize
  2428 ;;		_PIN_MANAGER_Initialize
  2429 ;; This function is called by:
  2430 ;;		_main
  2431 ;; This function uses a non-reentrant model
  2432 ;;
  2433                           
  2434                           
  2435                           ;psect for function _SYSTEM_Initialize
  2436  05C7                     _SYSTEM_Initialize:	
  2437                           
  2438                           ;mcc.c: 76: OSCILLATOR_Initialize();
  2439                           
  2440                           ;incstack = 0
  2441                           ; Regs used in _SYSTEM_Initialize: [wreg+status,2+status,0+pclath+cstack]
  2442  05C7  3185  25C1  3185   	fcall	_OSCILLATOR_Initialize
  2443                           
  2444                           ;mcc.c: 77: PIN_MANAGER_Initialize();
  2445  05CA  3185  25D0  3185   	fcall	_PIN_MANAGER_Initialize
  2446                           
  2447                           ;mcc.c: 78: DAC1_Initialize();
  2448  05CD  3185  25BC         	fcall	_DAC1_Initialize
  2449  05CF  0008               	return
  2450  05D0                     __end_of_SYSTEM_Initialize:	
  2451                           
  2452                           	psect	text2
  2453  05D0                     __ptext2:	
  2454 ;; *************** function _PIN_MANAGER_Initialize *****************
  2455 ;; Defined at:
  2456 ;;		line 50 in file "mcc_generated_files/pin_manager.c"
  2457 ;; Parameters:    Size  Location     Type
  2458 ;;		None
  2459 ;; Auto vars:     Size  Location     Type
  2460 ;;		None
  2461 ;; Return value:  Size  Location     Type
  2462 ;;		None               void
  2463 ;; Registers used:
  2464 ;;		wreg, status,2
  2465 ;; Tracked objects:
  2466 ;;		On entry : 0/0
  2467 ;;		On exit  : 0/0
  2468 ;;		Unchanged: 0/0
  2469 ;; Data sizes:     COMMON   BANK0   BANK1   BANK2   BANK3   BANK4   BANK5   BANK6
  2470 ;;      Params:         0       0       0       0       0       0       0       0
  2471 ;;      Locals:         0       0       0       0       0       0       0       0
  2472 ;;      Temps:          0       0       0       0       0       0       0       0
  2473 ;;      Totals:         0       0       0       0       0       0       0       0
  2474 ;;Total ram usage:        0 bytes
  2475 ;; Hardware stack levels used:    1
  2476 ;; This function calls:
  2477 ;;		Nothing
  2478 ;; This function is called by:
  2479 ;;		_SYSTEM_Initialize
  2480 ;;		_main
  2481 ;; This function uses a non-reentrant model
  2482 ;;
  2483                           
  2484                           
  2485                           ;psect for function _PIN_MANAGER_Initialize
  2486  05D0                     _PIN_MANAGER_Initialize:	
  2487                           
  2488                           ;pin_manager.c: 51: LATA = 0x00;
  2489                           
  2490                           ;incstack = 0
  2491                           ; Regs used in _PIN_MANAGER_Initialize: [wreg+status,2]
  2492  05D0  0022               	movlb	2	; select bank2
  2493  05D1  018C               	clrf	12	;volatile
  2494                           
  2495                           ;pin_manager.c: 52: TRISA = 0x28;
  2496  05D2  3028               	movlw	40
  2497  05D3  0021               	movlb	1	; select bank1
  2498  05D4  008C               	movwf	12	;volatile
  2499                           
  2500                           ;pin_manager.c: 53: ANSELA = 0x01;
  2501  05D5  3001               	movlw	1
  2502  05D6  0023               	movlb	3	; select bank3
  2503  05D7  008C               	movwf	12	;volatile
  2504                           
  2505                           ;pin_manager.c: 55: LATB = 0x00;
  2506  05D8  0022               	movlb	2	; select bank2
  2507  05D9  018D               	clrf	13	;volatile
  2508                           
  2509                           ;pin_manager.c: 56: TRISB = 0x20;
  2510  05DA  3020               	movlw	32
  2511  05DB  0021               	movlb	1	; select bank1
  2512  05DC  008D               	movwf	13	;volatile
  2513                           
  2514                           ;pin_manager.c: 57: ANSELB = 0x20;
  2515  05DD  3020               	movlw	32
  2516  05DE  0023               	movlb	3	; select bank3
  2517  05DF  008D               	movwf	13	;volatile
  2518                           
  2519                           ;pin_manager.c: 58: WPUB = 0x00;
  2520  05E0  0024               	movlb	4	; select bank4
  2521  05E1  018D               	clrf	13	;volatile
  2522                           
  2523                           ;pin_manager.c: 60: LATC = 0x00;
  2524  05E2  0022               	movlb	2	; select bank2
  2525  05E3  018E               	clrf	14	;volatile
  2526                           
  2527                           ;pin_manager.c: 61: TRISC = 0xFF;
  2528  05E4  30FF               	movlw	255
  2529  05E5  0021               	movlb	1	; select bank1
  2530  05E6  008E               	movwf	14	;volatile
  2531                           
  2532                           ;pin_manager.c: 62: ANSELC = 0x00;
  2533  05E7  0023               	movlb	3	; select bank3
  2534  05E8  018E               	clrf	14	;volatile
  2535                           
  2536                           ;pin_manager.c: 63: WPUC = 0x00;
  2537  05E9  0024               	movlb	4	; select bank4
  2538  05EA  018E               	clrf	14	;volatile
  2539                           
  2540                           ;pin_manager.c: 65: OPTION_REGbits.nWPUEN = 0x01;
  2541  05EB  0021               	movlb	1	; select bank1
  2542  05EC  1795               	bsf	21,7	;volatile
  2543  05ED  0008               	return
  2544  05EE                     __end_of_PIN_MANAGER_Initialize:	
  2545                           
  2546                           	psect	text3
  2547  05C1                     __ptext3:	
  2548 ;; *************** function _OSCILLATOR_Initialize *****************
  2549 ;; Defined at:
  2550 ;;		line 81 in file "mcc_generated_files/mcc.c"
  2551 ;; Parameters:    Size  Location     Type
  2552 ;;		None
  2553 ;; Auto vars:     Size  Location     Type
  2554 ;;		None
  2555 ;; Return value:  Size  Location     Type
  2556 ;;		None               void
  2557 ;; Registers used:
  2558 ;;		wreg, status,2
  2559 ;; Tracked objects:
  2560 ;;		On entry : 0/0
  2561 ;;		On exit  : 0/0
  2562 ;;		Unchanged: 0/0
  2563 ;; Data sizes:     COMMON   BANK0   BANK1   BANK2   BANK3   BANK4   BANK5   BANK6
  2564 ;;      Params:         0       0       0       0       0       0       0       0
  2565 ;;      Locals:         0       0       0       0       0       0       0       0
  2566 ;;      Temps:          0       0       0       0       0       0       0       0
  2567 ;;      Totals:         0       0       0       0       0       0       0       0
  2568 ;;Total ram usage:        0 bytes
  2569 ;; Hardware stack levels used:    1
  2570 ;; This function calls:
  2571 ;;		Nothing
  2572 ;; This function is called by:
  2573 ;;		_SYSTEM_Initialize
  2574 ;; This function uses a non-reentrant model
  2575 ;;
  2576                           
  2577                           
  2578                           ;psect for function _OSCILLATOR_Initialize
  2579  05C1                     _OSCILLATOR_Initialize:	
  2580                           
  2581                           ;mcc.c: 83: OSCCON = 0x7A;
  2582                           
  2583                           ;incstack = 0
  2584                           ; Regs used in _OSCILLATOR_Initialize: [wreg+status,2]
  2585  05C1  307A               	movlw	122
  2586  05C2  0021               	movlb	1	; select bank1
  2587  05C3  0099               	movwf	25	;volatile
  2588                           
  2589                           ;mcc.c: 85: OSCSTAT = 0x00;
  2590  05C4  019A               	clrf	26	;volatile
  2591                           
  2592                           ;mcc.c: 87: OSCTUNE = 0x00;
  2593  05C5  0198               	clrf	24	;volatile
  2594  05C6  0008               	return
  2595  05C7                     __end_of_OSCILLATOR_Initialize:	
  2596                           
  2597                           	psect	text4
  2598  05BC                     __ptext4:	
  2599 ;; *************** function _DAC1_Initialize *****************
  2600 ;; Defined at:
  2601 ;;		line 58 in file "mcc_generated_files/dac1.c"
  2602 ;; Parameters:    Size  Location     Type
  2603 ;;		None
  2604 ;; Auto vars:     Size  Location     Type
  2605 ;;		None
  2606 ;; Return value:  Size  Location     Type
  2607 ;;		None               void
  2608 ;; Registers used:
  2609 ;;		wreg, status,2
  2610 ;; Tracked objects:
  2611 ;;		On entry : 0/0
  2612 ;;		On exit  : 0/0
  2613 ;;		Unchanged: 0/0
  2614 ;; Data sizes:     COMMON   BANK0   BANK1   BANK2   BANK3   BANK4   BANK5   BANK6
  2615 ;;      Params:         0       0       0       0       0       0       0       0
  2616 ;;      Locals:         0       0       0       0       0       0       0       0
  2617 ;;      Temps:          0       0       0       0       0       0       0       0
  2618 ;;      Totals:         0       0       0       0       0       0       0       0
  2619 ;;Total ram usage:        0 bytes
  2620 ;; Hardware stack levels used:    1
  2621 ;; This function calls:
  2622 ;;		Nothing
  2623 ;; This function is called by:
  2624 ;;		_SYSTEM_Initialize
  2625 ;;		_main
  2626 ;; This function uses a non-reentrant model
  2627 ;;
  2628                           
  2629                           
  2630                           ;psect for function _DAC1_Initialize
  2631  05BC                     _DAC1_Initialize:	
  2632                           
  2633                           ;dac1.c: 60: DAC1CON0 = 0xA0;
  2634                           
  2635                           ;incstack = 0
  2636                           ; Regs used in _DAC1_Initialize: [wreg+status,2]
  2637  05BC  30A0               	movlw	160
  2638  05BD  0022               	movlb	2	; select bank2
  2639  05BE  0098               	movwf	24	;volatile
  2640                           
  2641                           ;dac1.c: 62: DAC1CON1 = 0x00;
  2642  05BF  0199               	clrf	25	;volatile
  2643  05C0  0008               	return
  2644  05C1                     __end_of_DAC1_Initialize:	
  2645                           
  2646                           	psect	text5
  2647  05EE                     __ptext5:	
  2648 ;; *************** function _MIPITRANSFER *****************
  2649 ;; Defined at:
  2650 ;;		line 82 in file "main.c"
  2651 ;; Parameters:    Size  Location     Type
  2652 ;;  k               1    wreg     unsigned char 
  2653 ;; Auto vars:     Size  Location     Type
  2654 ;;  k               1    3[COMMON] unsigned char 
  2655 ;;  j               1    7[COMMON] unsigned char 
  2656 ;;  j               1    5[COMMON] unsigned char 
  2657 ;;  i               1    9[COMMON] unsigned char 
  2658 ;;  j               1    6[COMMON] unsigned char 
  2659 ;;  i               1    8[COMMON] unsigned char 
  2660 ;;  j               1    4[COMMON] unsigned char 
  2661 ;; Return value:  Size  Location     Type
  2662 ;;		None               void
  2663 ;; Registers used:
  2664 ;;		wreg, fsr0l, fsr0h, status,2, status,0, pclath
  2665 ;; Tracked objects:
  2666 ;;		On entry : 0/0
  2667 ;;		On exit  : 0/0
  2668 ;;		Unchanged: 0/0
  2669 ;; Data sizes:     COMMON   BANK0   BANK1   BANK2   BANK3   BANK4   BANK5   BANK6
  2670 ;;      Params:         0       0       0       0       0       0       0       0
  2671 ;;      Locals:         7       0       0       0       0       0       0       0
  2672 ;;      Temps:          3       0       0       0       0       0       0       0
  2673 ;;      Totals:        10       0       0       0       0       0       0       0
  2674 ;;Total ram usage:       10 bytes
  2675 ;; Hardware stack levels used:    1
  2676 ;; This function calls:
  2677 ;;		Nothing
  2678 ;; This function is called by:
  2679 ;;		_main
  2680 ;; This function uses a non-reentrant model
  2681 ;;
  2682                           
  2683                           
  2684                           ;psect for function _MIPITRANSFER
  2685  05EE                     _MIPITRANSFER:	
  2686                           
  2687                           ;incstack = 0
  2688                           ; Regs used in _MIPITRANSFER: [wreg-fsr0h+status,2+status,0+pclath]
  2689                           ;MIPITRANSFER@k stored from wreg
  2690  05EE  00F3               	movwf	MIPITRANSFER@k
  2691                           
  2692                           ;main.c: 83: do { LATB7 = 1; } while(0);
  2693  05EF  0022               	movlb	2	; select bank2
  2694  05F0  178D               	bsf	13,7	;volatile
  2695  05F1  0000               	nop	;# 
  2696                           
  2697                           ;main.c: 85: do { LATB7 = 0; } while(0);
  2698  05F2  0022               	movlb	2	; select bank2
  2699  05F3  138D               	bcf	13,7	;volatile
  2700                           
  2701                           ;main.c: 86: readDummy = USIDLOWREV[0];
  2702  05F4  3021               	movlw	low (_USIDLOWREV| (0+32768))
  2703  05F5  0084               	movwf	4
  2704  05F6  3088               	movlw	high (_USIDLOWREV| (0+32768))
  2705  05F7  0085               	movwf	5
  2706  05F8  0800               	movf	0,w	;code access
  2707  05F9  00F0               	movwf	??_MIPITRANSFER
  2708  05FA  0870               	movf	??_MIPITRANSFER,w
  2709  05FB  00FD               	movwf	_readDummy
  2710                           
  2711                           ;main.c: 87: readDummy = readDummy >> 1;
  2712  05FC  367D               	lsrf	_readDummy,w
  2713  05FD  00F0               	movwf	??_MIPITRANSFER
  2714  05FE  0870               	movf	??_MIPITRANSFER,w
  2715  05FF  00FD               	movwf	_readDummy
  2716                           
  2717                           ;main.c: 88: for (uint8_t j=0; j<7; j++){
  2718  0600  01F4               	clrf	MIPITRANSFER@j
  2719  0601  3007               	movlw	7
  2720  0602  0274               	subwf	MIPITRANSFER@j,w
  2721  0603  1803               	btfsc	3,0
  2722  0604  2E1C               	goto	l99
  2723  0605                     l100:	
  2724                           ;main.c: 89: do { LATB6 = 1; } while(0);
  2725                           
  2726  0605  170D               	bsf	13,6	;volatile
  2727                           
  2728                           ;main.c: 90: LATB7 = readDummy & 0x01;
  2729  0606  1C7D               	btfss	_readDummy,0
  2730  0607  2E0B               	goto	u740
  2731  0608  0022               	movlb	2	; select bank2
  2732  0609  178D               	bsf	13,7	;volatile
  2733  060A  2E0D               	goto	u754
  2734  060B                     u740:	
  2735  060B  0022               	movlb	2	; select bank2
  2736  060C  138D               	bcf	13,7	;volatile
  2737  060D                     u754:	
  2738  060D  0000               	nop	;# 
  2739                           
  2740                           ;main.c: 92: do { LATB6 = 0; } while(0);
  2741  060E  0022               	movlb	2	; select bank2
  2742  060F  130D               	bcf	13,6	;volatile
  2743                           
  2744                           ;main.c: 93: readDummy = readDummy >> 1;
  2745  0610  367D               	lsrf	_readDummy,w
  2746  0611  00F0               	movwf	??_MIPITRANSFER
  2747  0612  0870               	movf	??_MIPITRANSFER,w
  2748  0613  00FD               	movwf	_readDummy
  2749  0614  3001               	movlw	1
  2750  0615  00F0               	movwf	??_MIPITRANSFER
  2751  0616  0870               	movf	??_MIPITRANSFER,w
  2752  0617  07F4               	addwf	MIPITRANSFER@j,f
  2753  0618  3007               	movlw	7
  2754  0619  0274               	subwf	MIPITRANSFER@j,w
  2755  061A  1C03               	skipc
  2756  061B  2E05               	goto	l100
  2757  061C                     l99:	
  2758                           
  2759                           ;main.c: 94: }
  2760                           ;main.c: 95: for (uint8_t i=1; i<3; i++){
  2761  061C  01F8               	clrf	MIPITRANSFER@i
  2762  061D  0AF8               	incf	MIPITRANSFER@i,f
  2763  061E  3003               	movlw	3
  2764  061F  0278               	subwf	MIPITRANSFER@i,w
  2765  0620  1803               	btfsc	3,0
  2766  0621  2E52               	goto	l105
  2767  0622                     l903:	
  2768                           
  2769                           ;main.c: 96: readDummy = USIDLOWREV[i];
  2770  0622  0878               	movf	MIPITRANSFER@i,w
  2771  0623  3E21               	addlw	low (_USIDLOWREV| (0+32768))
  2772  0624  0084               	movwf	4
  2773  0625  3088               	movlw	high (_USIDLOWREV| (0+32768))
  2774  0626  1803               	skipnc
  2775  0627  3E01               	addlw	1
  2776  0628  0085               	movwf	5
  2777  0629  0800               	movf	0,w	;code access
  2778  062A  00F0               	movwf	??_MIPITRANSFER
  2779  062B  0870               	movf	??_MIPITRANSFER,w
  2780  062C  00FD               	movwf	_readDummy
  2781                           
  2782                           ;main.c: 97: for (uint8_t j=0; j<8; j++){
  2783  062D  01F5               	clrf	MIPITRANSFER@j_109
  2784  062E  3008               	movlw	8
  2785  062F  0275               	subwf	MIPITRANSFER@j_109,w
  2786  0630  1803               	btfsc	3,0
  2787  0631  2E4A               	goto	l915
  2788  0632                     l108:	
  2789                           ;main.c: 98: do { LATB6 = 1; } while(0);
  2790                           
  2791  0632  0022               	movlb	2	; select bank2
  2792  0633  170D               	bsf	13,6	;volatile
  2793                           
  2794                           ;main.c: 99: LATB7 = readDummy & 0x01;
  2795  0634  1C7D               	btfss	_readDummy,0
  2796  0635  2E39               	goto	u790
  2797  0636  0022               	movlb	2	; select bank2
  2798  0637  178D               	bsf	13,7	;volatile
  2799  0638  2E3B               	goto	u804
  2800  0639                     u790:	
  2801  0639  0022               	movlb	2	; select bank2
  2802  063A  138D               	bcf	13,7	;volatile
  2803  063B                     u804:	
  2804  063B  0000               	nop	;# 
  2805                           
  2806                           ;main.c: 101: do { LATB6 = 0; } while(0);
  2807  063C  0022               	movlb	2	; select bank2
  2808  063D  130D               	bcf	13,6	;volatile
  2809                           
  2810                           ;main.c: 102: readDummy = readDummy >> 1;
  2811  063E  367D               	lsrf	_readDummy,w
  2812  063F  00F0               	movwf	??_MIPITRANSFER
  2813  0640  0870               	movf	??_MIPITRANSFER,w
  2814  0641  00FD               	movwf	_readDummy
  2815  0642  3001               	movlw	1
  2816  0643  00F0               	movwf	??_MIPITRANSFER
  2817  0644  0870               	movf	??_MIPITRANSFER,w
  2818  0645  07F5               	addwf	MIPITRANSFER@j_109,f
  2819  0646  3008               	movlw	8
  2820  0647  0275               	subwf	MIPITRANSFER@j_109,w
  2821  0648  1C03               	skipc
  2822  0649  2E32               	goto	l108
  2823  064A                     l915:	
  2824  064A  3001               	movlw	1
  2825  064B  00F0               	movwf	??_MIPITRANSFER
  2826  064C  0870               	movf	??_MIPITRANSFER,w
  2827  064D  07F8               	addwf	MIPITRANSFER@i,f
  2828  064E  3003               	movlw	3
  2829  064F  0278               	subwf	MIPITRANSFER@i,w
  2830  0650  1C03               	skipc
  2831  0651  2E22               	goto	l903
  2832  0652                     l105:	
  2833  0652  0000               	nop	;# 
  2834  0653  0000               	nop	;# 
  2835                           
  2836                           ;main.c: 107: do { LATB7 = 1; } while(0);
  2837  0654  0022               	movlb	2	; select bank2
  2838  0655  178D               	bsf	13,7	;volatile
  2839  0656  0000               	nop	;# 
  2840                           
  2841                           ;main.c: 109: do { LATB7 = 0; } while(0);
  2842  0657  0022               	movlb	2	; select bank2
  2843  0658  138D               	bcf	13,7	;volatile
  2844                           
  2845                           ;main.c: 110: readDummy = USIDLOWREV[k];
  2846  0659  0873               	movf	MIPITRANSFER@k,w
  2847  065A  3E21               	addlw	low (_USIDLOWREV| (0+32768))
  2848  065B  0084               	movwf	4
  2849  065C  3088               	movlw	high (_USIDLOWREV| (0+32768))
  2850  065D  1803               	skipnc
  2851  065E  3E01               	addlw	1
  2852  065F  0085               	movwf	5
  2853  0660  0800               	movf	0,w	;code access
  2854  0661  00F0               	movwf	??_MIPITRANSFER
  2855  0662  0870               	movf	??_MIPITRANSFER,w
  2856  0663  00FD               	movwf	_readDummy
  2857                           
  2858                           ;main.c: 111: readDummy = readDummy >> 1;
  2859  0664  367D               	lsrf	_readDummy,w
  2860  0665  00F0               	movwf	??_MIPITRANSFER
  2861  0666  0870               	movf	??_MIPITRANSFER,w
  2862  0667  00FD               	movwf	_readDummy
  2863                           
  2864                           ;main.c: 112: for (uint8_t j=0; j<7; j++){
  2865  0668  01F6               	clrf	MIPITRANSFER@j_110
  2866  0669  3007               	movlw	7
  2867  066A  0276               	subwf	MIPITRANSFER@j_110,w
  2868  066B  1803               	btfsc	3,0
  2869  066C  2E84               	goto	l117
  2870  066D                     l118:	
  2871                           ;main.c: 113: do { LATB6 = 1; } while(0);
  2872                           
  2873  066D  170D               	bsf	13,6	;volatile
  2874                           
  2875                           ;main.c: 114: LATB7 = readDummy & 0x01;
  2876  066E  1C7D               	btfss	_readDummy,0
  2877  066F  2E73               	goto	u840
  2878  0670  0022               	movlb	2	; select bank2
  2879  0671  178D               	bsf	13,7	;volatile
  2880  0672  2E75               	goto	u854
  2881  0673                     u840:	
  2882  0673  0022               	movlb	2	; select bank2
  2883  0674  138D               	bcf	13,7	;volatile
  2884  0675                     u854:	
  2885  0675  0000               	nop	;# 
  2886                           
  2887                           ;main.c: 116: do { LATB6 = 0; } while(0);
  2888  0676  0022               	movlb	2	; select bank2
  2889  0677  130D               	bcf	13,6	;volatile
  2890                           
  2891                           ;main.c: 117: readDummy = readDummy >> 1;
  2892  0678  367D               	lsrf	_readDummy,w
  2893  0679  00F0               	movwf	??_MIPITRANSFER
  2894  067A  0870               	movf	??_MIPITRANSFER,w
  2895  067B  00FD               	movwf	_readDummy
  2896  067C  3001               	movlw	1
  2897  067D  00F0               	movwf	??_MIPITRANSFER
  2898  067E  0870               	movf	??_MIPITRANSFER,w
  2899  067F  07F6               	addwf	MIPITRANSFER@j_110,f
  2900  0680  3007               	movlw	7
  2901  0681  0276               	subwf	MIPITRANSFER@j_110,w
  2902  0682  1C03               	skipc
  2903  0683  2E6D               	goto	l118
  2904  0684                     l117:	
  2905                           
  2906                           ;main.c: 118: }
  2907                           ;main.c: 119: for (uint8_t i=1; i<3; i++){
  2908  0684  01F9               	clrf	MIPITRANSFER@i_111
  2909  0685  0AF9               	incf	MIPITRANSFER@i_111,f
  2910  0686                     L2:	
  2911  0686  3003               	movlw	3
  2912  0687  0279               	subwf	MIPITRANSFER@i_111,w
  2913  0688  1803               	btfsc	3,0
  2914  0689  0008               	return
  2915                           
  2916                           ;main.c: 120: readDummy = USIDLOWREV[(k+i)];
  2917  068A  0873               	movf	MIPITRANSFER@k,w
  2918  068B  0779               	addwf	MIPITRANSFER@i_111,w
  2919  068C  00F0               	movwf	??_MIPITRANSFER
  2920  068D  01F1               	clrf	??_MIPITRANSFER+1
  2921  068E  0DF1               	rlf	??_MIPITRANSFER+1,f
  2922  068F  3021               	movlw	low (_USIDLOWREV| (0+32768))
  2923  0690  0770               	addwf	??_MIPITRANSFER,w
  2924  0691  0084               	movwf	4
  2925  0692  3088               	movlw	high (_USIDLOWREV| (0+32768))
  2926  0693  3D71               	addwfc	??_MIPITRANSFER+1,w
  2927  0694  0085               	movwf	5
  2928  0695  0800               	movf	0,w	;code access
  2929  0696  00F2               	movwf	??_MIPITRANSFER+2
  2930  0697  0872               	movf	??_MIPITRANSFER+2,w
  2931  0698  00FD               	movwf	_readDummy
  2932                           
  2933                           ;main.c: 121: for (uint8_t j=0; j<8; j++){
  2934  0699  01F7               	clrf	MIPITRANSFER@j_112
  2935  069A  3008               	movlw	8
  2936  069B  0277               	subwf	MIPITRANSFER@j_112,w
  2937  069C  1803               	btfsc	3,0
  2938  069D  2EB6               	goto	l949
  2939  069E                     l126:	
  2940                           ;main.c: 122: do { LATB6 = 1; } while(0);
  2941                           
  2942  069E  0022               	movlb	2	; select bank2
  2943  069F  170D               	bsf	13,6	;volatile
  2944                           
  2945                           ;main.c: 123: LATB7 = readDummy & 0x01;
  2946  06A0  1C7D               	btfss	_readDummy,0
  2947  06A1  2EA5               	goto	u890
  2948  06A2  0022               	movlb	2	; select bank2
  2949  06A3  178D               	bsf	13,7	;volatile
  2950  06A4  2EA7               	goto	u904
  2951  06A5                     u890:	
  2952  06A5  0022               	movlb	2	; select bank2
  2953  06A6  138D               	bcf	13,7	;volatile
  2954  06A7                     u904:	
  2955  06A7  0000               	nop	;# 
  2956                           
  2957                           ;main.c: 125: do { LATB6 = 0; } while(0);
  2958  06A8  0022               	movlb	2	; select bank2
  2959  06A9  130D               	bcf	13,6	;volatile
  2960                           
  2961                           ;main.c: 126: readDummy = readDummy >> 1;
  2962  06AA  367D               	lsrf	_readDummy,w
  2963  06AB  00F0               	movwf	??_MIPITRANSFER
  2964  06AC  0870               	movf	??_MIPITRANSFER,w
  2965  06AD  00FD               	movwf	_readDummy
  2966  06AE  3001               	movlw	1
  2967  06AF  00F0               	movwf	??_MIPITRANSFER
  2968  06B0  0870               	movf	??_MIPITRANSFER,w
  2969  06B1  07F7               	addwf	MIPITRANSFER@j_112,f
  2970  06B2  3008               	movlw	8
  2971  06B3  0277               	subwf	MIPITRANSFER@j_112,w
  2972  06B4  1C03               	skipc
  2973  06B5  2E9E               	goto	l126
  2974  06B6                     l949:	
  2975  06B6  3001               	movlw	1
  2976  06B7  00F0               	movwf	??_MIPITRANSFER
  2977  06B8  0870               	movf	??_MIPITRANSFER,w
  2978  06B9  07F9               	addwf	MIPITRANSFER@i_111,f
  2979  06BA  2E86               	goto	L2
  2980  06BB                     __end_of_MIPITRANSFER:	
  2981                           
  2982                           	psect	text6
  2983  05B7                     __ptext6:	
  2984 ;; *************** function _DAC1_SetOutput *****************
  2985 ;; Defined at:
  2986 ;;		line 65 in file "mcc_generated_files/dac1.c"
  2987 ;; Parameters:    Size  Location     Type
  2988 ;;  inputData       1    wreg     unsigned char 
  2989 ;; Auto vars:     Size  Location     Type
  2990 ;;  inputData       1    0[COMMON] unsigned char 
  2991 ;; Return value:  Size  Location     Type
  2992 ;;		None               void
  2993 ;; Registers used:
  2994 ;;		wreg
  2995 ;; Tracked objects:
  2996 ;;		On entry : 0/0
  2997 ;;		On exit  : 0/0
  2998 ;;		Unchanged: 0/0
  2999 ;; Data sizes:     COMMON   BANK0   BANK1   BANK2   BANK3   BANK4   BANK5   BANK6
  3000 ;;      Params:         0       0       0       0       0       0       0       0
  3001 ;;      Locals:         1       0       0       0       0       0       0       0
  3002 ;;      Temps:          0       0       0       0       0       0       0       0
  3003 ;;      Totals:         1       0       0       0       0       0       0       0
  3004 ;;Total ram usage:        1 bytes
  3005 ;; Hardware stack levels used:    1
  3006 ;; This function calls:
  3007 ;;		Nothing
  3008 ;; This function is called by:
  3009 ;;		_main
  3010 ;; This function uses a non-reentrant model
  3011 ;;
  3012                           
  3013                           
  3014                           ;psect for function _DAC1_SetOutput
  3015  05B7                     _DAC1_SetOutput:	
  3016                           
  3017                           ;incstack = 0
  3018                           ; Regs used in _DAC1_SetOutput: [wreg]
  3019                           ;DAC1_SetOutput@inputData stored from wreg
  3020  05B7  00F0               	movwf	DAC1_SetOutput@inputData
  3021                           
  3022                           ;dac1.c: 66: DAC1CON1 = inputData;
  3023  05B8  0870               	movf	DAC1_SetOutput@inputData,w
  3024  05B9  0022               	movlb	2	; select bank2
  3025  05BA  0099               	movwf	25	;volatile
  3026  05BB  0008               	return
  3027  05BC                     __end_of_DAC1_SetOutput:	
  3028  007E                     btemp	set	126	;btemp
  3029  007E                     wtemp	set	126
  3030  007E                     wtemp0	set	126
  3031  0080                     wtemp1	set	128
  3032  0082                     wtemp2	set	130
  3033  0084                     wtemp3	set	132
  3034  0086                     wtemp4	set	134
  3035  0088                     wtemp5	set	136
  3036  007F                     wtemp6	set	127
  3037  007E                     ttemp	set	126
  3038  007E                     ttemp0	set	126
  3039  0081                     ttemp1	set	129
  3040  0084                     ttemp2	set	132
  3041  0087                     ttemp3	set	135
  3042  007F                     ttemp4	set	127
  3043  007E                     ltemp	set	126
  3044  007E                     ltemp0	set	126
  3045  0082                     ltemp1	set	130
  3046  0086                     ltemp2	set	134
  3047  0080                     ltemp3	set	128


Data Sizes:
    Strings     0
    Constant    70
    Data        0
    BSS         4
    Persistent  0
    Stack       0

Auto Spaces:
    Space          Size  Autos    Used
    COMMON           14     11      14
    BANK0            80      0       1
    BANK1            80      0       0
    BANK2            80      0       0
    BANK3            80      0       0
    BANK4            80      0       0
    BANK5            80      0       0
    BANK6            16      0       0

Pointer List with Targets:

    None.

Critical Paths under _main in COMMON

    _main->_MIPITRANSFER

Critical Paths under _main in BANK0

    None.

Critical Paths under _main in BANK1

    None.

Critical Paths under _main in BANK2

    None.

Critical Paths under _main in BANK3

    None.

Critical Paths under _main in BANK4

    None.

Critical Paths under _main in BANK5

    None.

Critical Paths under _main in BANK6

    None.

Call Graph Tables:

 ---------------------------------------------------------------------------------
 (Depth) Function   	        Calls       Base Space   Used Autos Params    Refs
 ---------------------------------------------------------------------------------
 (0) _main                                                 1     1      0     386
                                             10 COMMON     1     1      0
                    _DAC1_Initialize
                     _DAC1_SetOutput
                       _MIPITRANSFER
             _PIN_MANAGER_Initialize
                  _SYSTEM_Initialize
 ---------------------------------------------------------------------------------
 (1) _SYSTEM_Initialize                                    0     0      0       0
                    _DAC1_Initialize
              _OSCILLATOR_Initialize
             _PIN_MANAGER_Initialize
 ---------------------------------------------------------------------------------
 (2) _PIN_MANAGER_Initialize                               0     0      0       0
 ---------------------------------------------------------------------------------
 (2) _OSCILLATOR_Initialize                                0     0      0       0
 ---------------------------------------------------------------------------------
 (2) _DAC1_Initialize                                      0     0      0       0
 ---------------------------------------------------------------------------------
 (1) _MIPITRANSFER                                        10    10      0     364
                                              0 COMMON    10    10      0
 ---------------------------------------------------------------------------------
 (1) _DAC1_SetOutput                                       1     1      0      22
                                              0 COMMON     1     1      0
 ---------------------------------------------------------------------------------
 Estimated maximum stack depth 2
 ---------------------------------------------------------------------------------

 Call Graph Graphs:

 _main (ROOT)
   _DAC1_Initialize
   _DAC1_SetOutput
   _MIPITRANSFER
   _PIN_MANAGER_Initialize
   _SYSTEM_Initialize
     _DAC1_Initialize
     _OSCILLATOR_Initialize
     _PIN_MANAGER_Initialize

 Address spaces:
Name               Size   Autos  Total    Cost      Usage
BIGRAM             1F0      0       0       0        0.0%
NULL                 0      0       0       0        0.0%
CODE                 0      0       0       0        0.0%
BITCOMMON            E      0       0       1        0.0%
BITSFR0              0      0       0       1        0.0%
SFR0                 0      0       0       1        0.0%
COMMON               E      B       E       2      100.0%
BITSFR1              0      0       0       2        0.0%
SFR1                 0      0       0       2        0.0%
BITSFR2              0      0       0       3        0.0%
SFR2                 0      0       0       3        0.0%
STACK                0      0       0       3        0.0%
BITSFR3              0      0       0       4        0.0%
SFR3                 0      0       0       4        0.0%
ABS                  0      0       F       4        0.0%
BITBANK0            50      0       0       5        0.0%
BITSFR4              0      0       0       5        0.0%
SFR4                 0      0       0       5        0.0%
BANK0               50      0       1       6        1.3%
BITSFR5              0      0       0       6        0.0%
SFR5                 0      0       0       6        0.0%
BITBANK1            50      0       0       7        0.0%
BITSFR6              0      0       0       7        0.0%
SFR6                 0      0       0       7        0.0%
BANK1               50      0       0       8        0.0%
BITSFR7              0      0       0       8        0.0%
SFR7                 0      0       0       8        0.0%
BITBANK2            50      0       0       9        0.0%
BITSFR8              0      0       0       9        0.0%
SFR8                 0      0       0       9        0.0%
BANK2               50      0       0      10        0.0%
BITSFR9              0      0       0      10        0.0%
SFR9                 0      0       0      10        0.0%
BITBANK3            50      0       0      11        0.0%
BITSFR10             0      0       0      11        0.0%
SFR10                0      0       0      11        0.0%
BANK3               50      0       0      12        0.0%
BITSFR11             0      0       0      12        0.0%
SFR11                0      0       0      12        0.0%
BITBANK4            50      0       0      13        0.0%
BITSFR12             0      0       0      13        0.0%
SFR12                0      0       0      13        0.0%
BANK4               50      0       0      14        0.0%
BITSFR13             0      0       0      14        0.0%
SFR13                0      0       0      14        0.0%
BITBANK5            50      0       0      15        0.0%
BITSFR14             0      0       0      15        0.0%
SFR14                0      0       0      15        0.0%
BANK5               50      0       0      16        0.0%
BITSFR15             0      0       0      16        0.0%
SFR15                0      0       0      16        0.0%
BITBANK6            10      0       0      17        0.0%
BITSFR16             0      0       0      17        0.0%
SFR16                0      0       0      17        0.0%
BANK6               10      0       0      18        0.0%
BITSFR17             0      0       0      18        0.0%
SFR17                0      0       0      18        0.0%
BITSFR18             0      0       0      19        0.0%
SFR18                0      0       0      19        0.0%
DATA                 0      0       F      19        0.0%
BITSFR19             0      0       0      20        0.0%
SFR19                0      0       0      20        0.0%
BITSFR20             0      0       0      21        0.0%
SFR20                0      0       0      21        0.0%
BITSFR21             0      0       0      22        0.0%
SFR21                0      0       0      22        0.0%
BITSFR22             0      0       0      23        0.0%
SFR22                0      0       0      23        0.0%
BITSFR23             0      0       0      24        0.0%
SFR23                0      0       0      24        0.0%
BITSFR24             0      0       0      25        0.0%
SFR24                0      0       0      25        0.0%
BITSFR25             0      0       0      26        0.0%
SFR25                0      0       0      26        0.0%
BITSFR26             0      0       0      27        0.0%
SFR26                0      0       0      27        0.0%
BITSFR27             0      0       0      28        0.0%
SFR27                0      0       0      28        0.0%
BITSFR28             0      0       0      29        0.0%
SFR28                0      0       0      29        0.0%
BITSFR29             0      0       0      30        0.0%
SFR29                0      0       0      30        0.0%
BITSFR30             0      0       0      31        0.0%
SFR30                0      0       0      31        0.0%
BITSFR31             0      0       0      32        0.0%
SFR31                0      0       0      32        0.0%


Microchip Technology PIC Macro Assembler V1.34 build -361300703 
Symbol Table                                                                                   Wed Dec 16 10:19:46 2015

                    __CFG_CP$OFF 0000                               l99 061C                      __CFG_LVP$ON 0000  
                _DAC1_Initialize 05BC                              l100 0605                              l105 0652  
                            l203 0797                              l108 0632                              l117 0684  
                            l205 0798                              l126 069E                              l118 066D  
                            l170 0753                              l163 074E                              l173 0755  
                            l168 0751                              l198 0795                              l903 0622  
                            l915 064A                              l971 06E5                              l963 06CD  
                            l949 06B6                              l981 0701                              l967 06D9  
                            u804 063B                              u740 060B                              u904 06A7  
                            u840 0673                              u754 060D                              u854 0675  
                            u790 0639                              u890 06A5                     __CFG_BORV$LO 0000  
                 _DAC1_SetOutput 05B7                     __CFG_ZCD$OFF 0000                             l1021 0763  
                           l1041 0785                             l1017 0758                             l1061 07B3  
                           l1053 07A1                             l1045 078D                             l1037 077D  
                           l1071 07C8                             l1055 07A6                             l1073 07CD  
                           l1065 07BB                             l1049 0799                             l1091 07F4  
                           l1083 07E2                             l1067 07C0                             l1059 07AE  
                           l1085 07E7                             l1077 07D5                             l1079 07DA  
                           l1089 07EF                             _LATA 010C                             _LATB 010D  
                           _LATC 010E                             _WPUB 020D                             _WPUC 020E  
                   __CFG_WRT$OFF 0000                             _main 06BB                             fsr0h 0005  
                           fsr0l 0004                             indf0 0000                             btemp 007E  
                           ltemp 007E                             start 0002                             ttemp 007E  
                           wtemp 007E   __size_of_OSCILLATOR_Initialize 0006    __end_of_OSCILLATOR_Initialize 05C7  
                          ?_main 0070                    __CFG_WDTE$OFF 0000                            _LATA1 0861  
                          _LATA2 0862                            _LATA4 0864                            _LATB4 086C  
                          _LATB6 086E                            _LATB7 086F           __end_of_DAC1_SetOutput 05BC  
                          _PORTC 000E                            _TRISA 008C                            _TRISB 008D  
                          _TRISC 008E                            _Byte1 0020                            _Byte2 007B  
                          _Byte3 007C                    __CFG_PWRTE$ON 0000                   __CFG_BOREN$OFF 0000  
                          ltemp0 007E                            ltemp1 0082                            ltemp2 0086  
                          ltemp3 0080                            ttemp0 007E                            ttemp1 0081  
                          ttemp2 0084                            ttemp3 0087                            ttemp4 007F  
                          status 0003                            wtemp0 007E                            wtemp1 0080  
                          wtemp2 0082                            wtemp3 0084                            wtemp4 0086  
                          wtemp5 0088                            wtemp6 007F                   __CFG_MCLRE$OFF 0000  
                  ?_MIPITRANSFER 0070                  __initialization 07F9                     __end_of_main 07F9  
        __end_of_DAC1_Initialize 05C1                   __CFG_LPBOR$OFF 0000                           ??_main 007A  
                ?_DAC1_SetOutput 0070                   __CFG_PLLEN$OFF 0000                           _ANSELA 018C  
                         _ANSELB 018D                           _ANSELC 018E                           _OSCCON 0099  
        DAC1_SetOutput@inputData 0070                   ??_MIPITRANSFER 0070                   __CFG_STVREN$ON 0000  
              __end_of_DacOutput 0846                _SYSTEM_Initialize 05C7          __end_of__initialization 07FD  
             ?_SYSTEM_Initialize 0070                   __pcstackCOMMON 0070              ??_SYSTEM_Initialize 0070  
               ?_DAC1_Initialize 0070                   _OPTION_REGbits 0095        __end_of_SYSTEM_Initialize 05D0  
                     __pbssBANK0 0020                       __pmaintext 06BB                  __CFG_PPS1WAY$ON 0000  
                __CFG_WDTCCS$SWC 0000             __end_of_MIPITRANSFER 06BB                          _OSCSTAT 009A  
                        _OSCTUNE 0098                 ??_DAC1_SetOutput 0070                          __ptext1 05C7  
                        __ptext2 05D0                          __ptext3 05C1                          __ptext4 05BC  
                        __ptext5 05EE                          __ptext6 05B7            _OSCILLATOR_Initialize 05C1  
             __end_of_USIDLOWREV 0842         ??_PIN_MANAGER_Initialize 0070       __size_of_SYSTEM_Initialize 0009  
           end_of_initialization 07FD                     __pstringtext 0800                 __CFG_FOSC$INTOSC 0000  
                      _DacOutput 0842            __size_of_MIPITRANSFER 00CD           ?_OSCILLATOR_Initialize 0070  
            start_initialization 07F9  __size_of_PIN_MANAGER_Initialize 001E                     _MIPITRANSFER 05EE  
       __size_of_DAC1_Initialize 0005                      __pbssCOMMON 007B                        ___latbits 0001  
         _PIN_MANAGER_Initialize 05D0                    MIPITRANSFER@i 0078                    MIPITRANSFER@j 0074  
                  MIPITRANSFER@k 0073                         _DAC1CON0 0118                         _DAC1CON1 0119  
                      _readDummy 007D             __CFG_WDTCPS$WDTCPS1F 0000                ??_DAC1_Initialize 0070  
              MIPITRANSFER@i_111 0079                MIPITRANSFER@j_110 0076                MIPITRANSFER@j_112 0077  
              MIPITRANSFER@j_109 0075          ??_OSCILLATOR_Initialize 0070          __size_of_DAC1_SetOutput 0005  
            __end_of_USIDHIGHREV 0821                    __size_of_main 013E             __CFG_WDTCWS$WDTCWSSW 0000  
        ?_PIN_MANAGER_Initialize 0070                __CFG_CLKOUTEN$OFF 0000                      _USIDHIGHREV 0800  
 __end_of_PIN_MANAGER_Initialize 05EE                       _USIDLOWREV 0821  
