

Microchip Technology PIC LITE Macro Assembler V1.34 build -361300703 
                                                                                               Wed Nov 25 17:02:37 2015

Microchip Technology Omniscient Code Generator (Lite mode) build 201502162209
     1                           	processor	16F1619
     2                           	opt	pw 120
     3                           	opt	lm
     4                           	psect	nvCOMMON,global,class=COMMON,space=1,delta=1
     5                           	psect	nvBANK0,global,class=BANK0,space=1,delta=1
     6                           	psect	cinit,global,class=CODE,merge=1,delta=2
     7                           	psect	bssCOMMON,global,class=COMMON,space=1,delta=1
     8                           	psect	bssBANK0,global,class=BANK0,space=1,delta=1
     9                           	psect	cstackCOMMON,global,class=COMMON,space=1,delta=1
    10                           	psect	maintext,global,class=CODE,merge=1,split=1,delta=2
    11                           	psect	text1,local,class=CODE,merge=1,delta=2
    12                           	psect	text2,local,class=CODE,merge=1,delta=2
    13                           	psect	text3,local,class=CODE,merge=1,delta=2
    14                           	psect	text4,local,class=CODE,merge=1,delta=2
    15                           	psect	text5,local,class=CODE,merge=1,delta=2
    16                           	psect	text6,local,class=CODE,merge=1,delta=2
    17                           	psect	text7,local,class=CODE,merge=1,delta=2
    18                           	psect	text8,local,class=CODE,merge=1,delta=2
    19                           	dabs	1,0x7E,2
    20  0000                     	;# 
    21  0001                     	;# 
    22  0002                     	;# 
    23  0003                     	;# 
    24  0004                     	;# 
    25  0005                     	;# 
    26  0006                     	;# 
    27  0007                     	;# 
    28  0008                     	;# 
    29  0009                     	;# 
    30  000A                     	;# 
    31  000B                     	;# 
    32  000C                     	;# 
    33  000D                     	;# 
    34  000E                     	;# 
    35  0010                     	;# 
    36  0011                     	;# 
    37  0012                     	;# 
    38  0013                     	;# 
    39  0014                     	;# 
    40  0015                     	;# 
    41  0016                     	;# 
    42  0016                     	;# 
    43  0017                     	;# 
    44  0018                     	;# 
    45  0019                     	;# 
    46  001A                     	;# 
    47  001A                     	;# 
    48  001B                     	;# 
    49  001B                     	;# 
    50  001C                     	;# 
    51  001D                     	;# 
    52  001E                     	;# 
    53  001F                     	;# 
    54  008C                     	;# 
    55  008D                     	;# 
    56  008E                     	;# 
    57  0090                     	;# 
    58  0091                     	;# 
    59  0092                     	;# 
    60  0093                     	;# 
    61  0094                     	;# 
    62  0095                     	;# 
    63  0096                     	;# 
    64  0098                     	;# 
    65  0099                     	;# 
    66  009A                     	;# 
    67  009B                     	;# 
    68  009B                     	;# 
    69  009C                     	;# 
    70  009D                     	;# 
    71  009E                     	;# 
    72  009F                     	;# 
    73  010C                     	;# 
    74  010D                     	;# 
    75  010E                     	;# 
    76  0111                     	;# 
    77  0112                     	;# 
    78  0113                     	;# 
    79  0114                     	;# 
    80  0115                     	;# 
    81  0116                     	;# 
    82  0117                     	;# 
    83  0118                     	;# 
    84  0119                     	;# 
    85  011C                     	;# 
    86  018C                     	;# 
    87  018D                     	;# 
    88  018E                     	;# 
    89  0191                     	;# 
    90  0191                     	;# 
    91  0192                     	;# 
    92  0193                     	;# 
    93  0193                     	;# 
    94  0194                     	;# 
    95  0195                     	;# 
    96  0196                     	;# 
    97  0197                     	;# 
    98  0199                     	;# 
    99  0199                     	;# 
   100  0199                     	;# 
   101  019A                     	;# 
   102  019A                     	;# 
   103  019A                     	;# 
   104  019B                     	;# 
   105  019B                     	;# 
   106  019B                     	;# 
   107  019B                     	;# 
   108  019B                     	;# 
   109  019C                     	;# 
   110  019C                     	;# 
   111  019C                     	;# 
   112  019D                     	;# 
   113  019D                     	;# 
   114  019D                     	;# 
   115  019E                     	;# 
   116  019E                     	;# 
   117  019E                     	;# 
   118  019F                     	;# 
   119  019F                     	;# 
   120  019F                     	;# 
   121  019F                     	;# 
   122  019F                     	;# 
   123  020C                     	;# 
   124  020D                     	;# 
   125  020E                     	;# 
   126  0211                     	;# 
   127  0211                     	;# 
   128  0212                     	;# 
   129  0212                     	;# 
   130  0213                     	;# 
   131  0213                     	;# 
   132  0214                     	;# 
   133  0214                     	;# 
   134  0215                     	;# 
   135  0215                     	;# 
   136  0215                     	;# 
   137  0215                     	;# 
   138  0216                     	;# 
   139  0216                     	;# 
   140  0217                     	;# 
   141  0217                     	;# 
   142  028C                     	;# 
   143  028D                     	;# 
   144  028E                     	;# 
   145  0291                     	;# 
   146  0291                     	;# 
   147  0292                     	;# 
   148  0293                     	;# 
   149  0294                     	;# 
   150  0298                     	;# 
   151  0298                     	;# 
   152  0299                     	;# 
   153  029A                     	;# 
   154  029B                     	;# 
   155  029E                     	;# 
   156  030C                     	;# 
   157  030D                     	;# 
   158  030E                     	;# 
   159  038C                     	;# 
   160  038D                     	;# 
   161  038E                     	;# 
   162  0391                     	;# 
   163  0392                     	;# 
   164  0393                     	;# 
   165  0394                     	;# 
   166  0395                     	;# 
   167  0396                     	;# 
   168  0397                     	;# 
   169  0398                     	;# 
   170  0399                     	;# 
   171  040E                     	;# 
   172  0413                     	;# 
   173  0413                     	;# 
   174  0414                     	;# 
   175  0414                     	;# 
   176  0415                     	;# 
   177  0416                     	;# 
   178  0417                     	;# 
   179  0418                     	;# 
   180  041A                     	;# 
   181  041A                     	;# 
   182  041B                     	;# 
   183  041B                     	;# 
   184  041C                     	;# 
   185  041D                     	;# 
   186  041E                     	;# 
   187  041F                     	;# 
   188  0493                     	;# 
   189  0494                     	;# 
   190  0495                     	;# 
   191  0496                     	;# 
   192  049A                     	;# 
   193  049B                     	;# 
   194  049C                     	;# 
   195  049D                     	;# 
   196  058C                     	;# 
   197  058C                     	;# 
   198  058D                     	;# 
   199  058E                     	;# 
   200  058E                     	;# 
   201  058F                     	;# 
   202  0590                     	;# 
   203  0590                     	;# 
   204  0591                     	;# 
   205  0592                     	;# 
   206  0592                     	;# 
   207  0593                     	;# 
   208  0594                     	;# 
   209  0594                     	;# 
   210  0595                     	;# 
   211  0596                     	;# 
   212  0596                     	;# 
   213  0597                     	;# 
   214  0598                     	;# 
   215  0599                     	;# 
   216  059A                     	;# 
   217  059B                     	;# 
   218  059B                     	;# 
   219  059C                     	;# 
   220  059D                     	;# 
   221  060C                     	;# 
   222  060C                     	;# 
   223  060D                     	;# 
   224  060E                     	;# 
   225  060F                     	;# 
   226  060F                     	;# 
   227  0610                     	;# 
   228  0611                     	;# 
   229  0612                     	;# 
   230  0613                     	;# 
   231  0614                     	;# 
   232  0617                     	;# 
   233  0618                     	;# 
   234  0619                     	;# 
   235  061A                     	;# 
   236  061B                     	;# 
   237  061C                     	;# 
   238  0691                     	;# 
   239  0692                     	;# 
   240  0693                     	;# 
   241  0694                     	;# 
   242  0695                     	;# 
   243  0696                     	;# 
   244  0697                     	;# 
   245  0699                     	;# 
   246  069A                     	;# 
   247  0711                     	;# 
   248  0712                     	;# 
   249  0713                     	;# 
   250  0714                     	;# 
   251  0715                     	;# 
   252  0718                     	;# 
   253  0718                     	;# 
   254  0719                     	;# 
   255  071A                     	;# 
   256  071A                     	;# 
   257  071B                     	;# 
   258  071C                     	;# 
   259  071D                     	;# 
   260  0791                     	;# 
   261  0791                     	;# 
   262  0792                     	;# 
   263  0793                     	;# 
   264  0793                     	;# 
   265  0794                     	;# 
   266  0795                     	;# 
   267  0795                     	;# 
   268  0796                     	;# 
   269  0797                     	;# 
   270  0797                     	;# 
   271  0798                     	;# 
   272  0799                     	;# 
   273  079A                     	;# 
   274  080C                     	;# 
   275  080C                     	;# 
   276  080D                     	;# 
   277  080E                     	;# 
   278  080E                     	;# 
   279  080F                     	;# 
   280  0810                     	;# 
   281  0810                     	;# 
   282  0811                     	;# 
   283  0812                     	;# 
   284  0812                     	;# 
   285  0813                     	;# 
   286  0814                     	;# 
   287  0815                     	;# 
   288  0816                     	;# 
   289  0817                     	;# 
   290  0818                     	;# 
   291  0819                     	;# 
   292  081A                     	;# 
   293  081A                     	;# 
   294  081B                     	;# 
   295  081C                     	;# 
   296  081C                     	;# 
   297  081D                     	;# 
   298  088C                     	;# 
   299  088D                     	;# 
   300  088E                     	;# 
   301  088F                     	;# 
   302  088F                     	;# 
   303  0890                     	;# 
   304  0891                     	;# 
   305  0892                     	;# 
   306  0893                     	;# 
   307  0893                     	;# 
   308  0894                     	;# 
   309  0895                     	;# 
   310  0896                     	;# 
   311  0897                     	;# 
   312  0897                     	;# 
   313  0898                     	;# 
   314  0899                     	;# 
   315  0D8C                     	;# 
   316  0D8C                     	;# 
   317  0D8D                     	;# 
   318  0D8E                     	;# 
   319  0D8F                     	;# 
   320  0D8F                     	;# 
   321  0D90                     	;# 
   322  0D91                     	;# 
   323  0D92                     	;# 
   324  0D92                     	;# 
   325  0D93                     	;# 
   326  0D94                     	;# 
   327  0D95                     	;# 
   328  0D95                     	;# 
   329  0D96                     	;# 
   330  0D97                     	;# 
   331  0D98                     	;# 
   332  0D99                     	;# 
   333  0D9A                     	;# 
   334  0D9B                     	;# 
   335  0D9C                     	;# 
   336  0D9D                     	;# 
   337  0D9E                     	;# 
   338  0D9E                     	;# 
   339  0D9F                     	;# 
   340  0DA0                     	;# 
   341  0DA1                     	;# 
   342  0DA1                     	;# 
   343  0DA2                     	;# 
   344  0DA3                     	;# 
   345  0DA4                     	;# 
   346  0DA4                     	;# 
   347  0DA5                     	;# 
   348  0DA6                     	;# 
   349  0DA7                     	;# 
   350  0DA7                     	;# 
   351  0DA8                     	;# 
   352  0DA9                     	;# 
   353  0DAA                     	;# 
   354  0DAB                     	;# 
   355  0DAC                     	;# 
   356  0DAD                     	;# 
   357  0DAE                     	;# 
   358  0DAF                     	;# 
   359  0E0F                     	;# 
   360  0E10                     	;# 
   361  0E11                     	;# 
   362  0E12                     	;# 
   363  0E13                     	;# 
   364  0E14                     	;# 
   365  0E15                     	;# 
   366  0E16                     	;# 
   367  0E17                     	;# 
   368  0E18                     	;# 
   369  0E19                     	;# 
   370  0E1A                     	;# 
   371  0E1B                     	;# 
   372  0E1C                     	;# 
   373  0E1D                     	;# 
   374  0E1E                     	;# 
   375  0E1F                     	;# 
   376  0E20                     	;# 
   377  0E21                     	;# 
   378  0E22                     	;# 
   379  0E23                     	;# 
   380  0E24                     	;# 
   381  0E25                     	;# 
   382  0E26                     	;# 
   383  0E27                     	;# 
   384  0E28                     	;# 
   385  0E29                     	;# 
   386  0E2A                     	;# 
   387  0E2B                     	;# 
   388  0E2C                     	;# 
   389  0E2D                     	;# 
   390  0E2E                     	;# 
   391  0E90                     	;# 
   392  0E91                     	;# 
   393  0E92                     	;# 
   394  0E94                     	;# 
   395  0E95                     	;# 
   396  0E9C                     	;# 
   397  0E9D                     	;# 
   398  0E9E                     	;# 
   399  0E9F                     	;# 
   400  0EA0                     	;# 
   401  0EA1                     	;# 
   402  0EA2                     	;# 
   403  0EA3                     	;# 
   404  0EA4                     	;# 
   405  0EA5                     	;# 
   406  0EA6                     	;# 
   407  0EA7                     	;# 
   408  0F0F                     	;# 
   409  0F10                     	;# 
   410  0F11                     	;# 
   411  0F12                     	;# 
   412  0F13                     	;# 
   413  0F14                     	;# 
   414  0F15                     	;# 
   415  0F16                     	;# 
   416  0F17                     	;# 
   417  0F18                     	;# 
   418  0F19                     	;# 
   419  0F1A                     	;# 
   420  0F1B                     	;# 
   421  0F1C                     	;# 
   422  0F1D                     	;# 
   423  0F1E                     	;# 
   424  0F1F                     	;# 
   425  0F20                     	;# 
   426  0F21                     	;# 
   427  0F22                     	;# 
   428  0F23                     	;# 
   429  0F24                     	;# 
   430  0F25                     	;# 
   431  0F26                     	;# 
   432  0F27                     	;# 
   433  0F28                     	;# 
   434  0F29                     	;# 
   435  0F2A                     	;# 
   436  0F2B                     	;# 
   437  0F2C                     	;# 
   438  0F2D                     	;# 
   439  0F2E                     	;# 
   440  0F2F                     	;# 
   441  0F30                     	;# 
   442  0F31                     	;# 
   443  0F32                     	;# 
   444  0F33                     	;# 
   445  0F34                     	;# 
   446  0F35                     	;# 
   447  0F36                     	;# 
   448  0F37                     	;# 
   449  0FE4                     	;# 
   450  0FE5                     	;# 
   451  0FE6                     	;# 
   452  0FE7                     	;# 
   453  0FE8                     	;# 
   454  0FE9                     	;# 
   455  0FEA                     	;# 
   456  0FEB                     	;# 
   457  0FED                     	;# 
   458  0FEE                     	;# 
   459  0FEF                     	;# 
   460  0000                     	;# 
   461  0001                     	;# 
   462  0002                     	;# 
   463  0003                     	;# 
   464  0004                     	;# 
   465  0005                     	;# 
   466  0006                     	;# 
   467  0007                     	;# 
   468  0008                     	;# 
   469  0009                     	;# 
   470  000A                     	;# 
   471  000B                     	;# 
   472  000C                     	;# 
   473  000D                     	;# 
   474  000E                     	;# 
   475  0010                     	;# 
   476  0011                     	;# 
   477  0012                     	;# 
   478  0013                     	;# 
   479  0014                     	;# 
   480  0015                     	;# 
   481  0016                     	;# 
   482  0016                     	;# 
   483  0017                     	;# 
   484  0018                     	;# 
   485  0019                     	;# 
   486  001A                     	;# 
   487  001A                     	;# 
   488  001B                     	;# 
   489  001B                     	;# 
   490  001C                     	;# 
   491  001D                     	;# 
   492  001E                     	;# 
   493  001F                     	;# 
   494  008C                     	;# 
   495  008D                     	;# 
   496  008E                     	;# 
   497  0090                     	;# 
   498  0091                     	;# 
   499  0092                     	;# 
   500  0093                     	;# 
   501  0094                     	;# 
   502  0095                     	;# 
   503  0096                     	;# 
   504  0098                     	;# 
   505  0099                     	;# 
   506  009A                     	;# 
   507  009B                     	;# 
   508  009B                     	;# 
   509  009C                     	;# 
   510  009D                     	;# 
   511  009E                     	;# 
   512  009F                     	;# 
   513  010C                     	;# 
   514  010D                     	;# 
   515  010E                     	;# 
   516  0111                     	;# 
   517  0112                     	;# 
   518  0113                     	;# 
   519  0114                     	;# 
   520  0115                     	;# 
   521  0116                     	;# 
   522  0117                     	;# 
   523  0118                     	;# 
   524  0119                     	;# 
   525  011C                     	;# 
   526  018C                     	;# 
   527  018D                     	;# 
   528  018E                     	;# 
   529  0191                     	;# 
   530  0191                     	;# 
   531  0192                     	;# 
   532  0193                     	;# 
   533  0193                     	;# 
   534  0194                     	;# 
   535  0195                     	;# 
   536  0196                     	;# 
   537  0197                     	;# 
   538  0199                     	;# 
   539  0199                     	;# 
   540  0199                     	;# 
   541  019A                     	;# 
   542  019A                     	;# 
   543  019A                     	;# 
   544  019B                     	;# 
   545  019B                     	;# 
   546  019B                     	;# 
   547  019B                     	;# 
   548  019B                     	;# 
   549  019C                     	;# 
   550  019C                     	;# 
   551  019C                     	;# 
   552  019D                     	;# 
   553  019D                     	;# 
   554  019D                     	;# 
   555  019E                     	;# 
   556  019E                     	;# 
   557  019E                     	;# 
   558  019F                     	;# 
   559  019F                     	;# 
   560  019F                     	;# 
   561  019F                     	;# 
   562  019F                     	;# 
   563  020C                     	;# 
   564  020D                     	;# 
   565  020E                     	;# 
   566  0211                     	;# 
   567  0211                     	;# 
   568  0212                     	;# 
   569  0212                     	;# 
   570  0213                     	;# 
   571  0213                     	;# 
   572  0214                     	;# 
   573  0214                     	;# 
   574  0215                     	;# 
   575  0215                     	;# 
   576  0215                     	;# 
   577  0215                     	;# 
   578  0216                     	;# 
   579  0216                     	;# 
   580  0217                     	;# 
   581  0217                     	;# 
   582  028C                     	;# 
   583  028D                     	;# 
   584  028E                     	;# 
   585  0291                     	;# 
   586  0291                     	;# 
   587  0292                     	;# 
   588  0293                     	;# 
   589  0294                     	;# 
   590  0298                     	;# 
   591  0298                     	;# 
   592  0299                     	;# 
   593  029A                     	;# 
   594  029B                     	;# 
   595  029E                     	;# 
   596  030C                     	;# 
   597  030D                     	;# 
   598  030E                     	;# 
   599  038C                     	;# 
   600  038D                     	;# 
   601  038E                     	;# 
   602  0391                     	;# 
   603  0392                     	;# 
   604  0393                     	;# 
   605  0394                     	;# 
   606  0395                     	;# 
   607  0396                     	;# 
   608  0397                     	;# 
   609  0398                     	;# 
   610  0399                     	;# 
   611  040E                     	;# 
   612  0413                     	;# 
   613  0413                     	;# 
   614  0414                     	;# 
   615  0414                     	;# 
   616  0415                     	;# 
   617  0416                     	;# 
   618  0417                     	;# 
   619  0418                     	;# 
   620  041A                     	;# 
   621  041A                     	;# 
   622  041B                     	;# 
   623  041B                     	;# 
   624  041C                     	;# 
   625  041D                     	;# 
   626  041E                     	;# 
   627  041F                     	;# 
   628  0493                     	;# 
   629  0494                     	;# 
   630  0495                     	;# 
   631  0496                     	;# 
   632  049A                     	;# 
   633  049B                     	;# 
   634  049C                     	;# 
   635  049D                     	;# 
   636  058C                     	;# 
   637  058C                     	;# 
   638  058D                     	;# 
   639  058E                     	;# 
   640  058E                     	;# 
   641  058F                     	;# 
   642  0590                     	;# 
   643  0590                     	;# 
   644  0591                     	;# 
   645  0592                     	;# 
   646  0592                     	;# 
   647  0593                     	;# 
   648  0594                     	;# 
   649  0594                     	;# 
   650  0595                     	;# 
   651  0596                     	;# 
   652  0596                     	;# 
   653  0597                     	;# 
   654  0598                     	;# 
   655  0599                     	;# 
   656  059A                     	;# 
   657  059B                     	;# 
   658  059B                     	;# 
   659  059C                     	;# 
   660  059D                     	;# 
   661  060C                     	;# 
   662  060C                     	;# 
   663  060D                     	;# 
   664  060E                     	;# 
   665  060F                     	;# 
   666  060F                     	;# 
   667  0610                     	;# 
   668  0611                     	;# 
   669  0612                     	;# 
   670  0613                     	;# 
   671  0614                     	;# 
   672  0617                     	;# 
   673  0618                     	;# 
   674  0619                     	;# 
   675  061A                     	;# 
   676  061B                     	;# 
   677  061C                     	;# 
   678  0691                     	;# 
   679  0692                     	;# 
   680  0693                     	;# 
   681  0694                     	;# 
   682  0695                     	;# 
   683  0696                     	;# 
   684  0697                     	;# 
   685  0699                     	;# 
   686  069A                     	;# 
   687  0711                     	;# 
   688  0712                     	;# 
   689  0713                     	;# 
   690  0714                     	;# 
   691  0715                     	;# 
   692  0718                     	;# 
   693  0718                     	;# 
   694  0719                     	;# 
   695  071A                     	;# 
   696  071A                     	;# 
   697  071B                     	;# 
   698  071C                     	;# 
   699  071D                     	;# 
   700  0791                     	;# 
   701  0791                     	;# 
   702  0792                     	;# 
   703  0793                     	;# 
   704  0793                     	;# 
   705  0794                     	;# 
   706  0795                     	;# 
   707  0795                     	;# 
   708  0796                     	;# 
   709  0797                     	;# 
   710  0797                     	;# 
   711  0798                     	;# 
   712  0799                     	;# 
   713  079A                     	;# 
   714  080C                     	;# 
   715  080C                     	;# 
   716  080D                     	;# 
   717  080E                     	;# 
   718  080E                     	;# 
   719  080F                     	;# 
   720  0810                     	;# 
   721  0810                     	;# 
   722  0811                     	;# 
   723  0812                     	;# 
   724  0812                     	;# 
   725  0813                     	;# 
   726  0814                     	;# 
   727  0815                     	;# 
   728  0816                     	;# 
   729  0817                     	;# 
   730  0818                     	;# 
   731  0819                     	;# 
   732  081A                     	;# 
   733  081A                     	;# 
   734  081B                     	;# 
   735  081C                     	;# 
   736  081C                     	;# 
   737  081D                     	;# 
   738  088C                     	;# 
   739  088D                     	;# 
   740  088E                     	;# 
   741  088F                     	;# 
   742  088F                     	;# 
   743  0890                     	;# 
   744  0891                     	;# 
   745  0892                     	;# 
   746  0893                     	;# 
   747  0893                     	;# 
   748  0894                     	;# 
   749  0895                     	;# 
   750  0896                     	;# 
   751  0897                     	;# 
   752  0897                     	;# 
   753  0898                     	;# 
   754  0899                     	;# 
   755  0D8C                     	;# 
   756  0D8C                     	;# 
   757  0D8D                     	;# 
   758  0D8E                     	;# 
   759  0D8F                     	;# 
   760  0D8F                     	;# 
   761  0D90                     	;# 
   762  0D91                     	;# 
   763  0D92                     	;# 
   764  0D92                     	;# 
   765  0D93                     	;# 
   766  0D94                     	;# 
   767  0D95                     	;# 
   768  0D95                     	;# 
   769  0D96                     	;# 
   770  0D97                     	;# 
   771  0D98                     	;# 
   772  0D99                     	;# 
   773  0D9A                     	;# 
   774  0D9B                     	;# 
   775  0D9C                     	;# 
   776  0D9D                     	;# 
   777  0D9E                     	;# 
   778  0D9E                     	;# 
   779  0D9F                     	;# 
   780  0DA0                     	;# 
   781  0DA1                     	;# 
   782  0DA1                     	;# 
   783  0DA2                     	;# 
   784  0DA3                     	;# 
   785  0DA4                     	;# 
   786  0DA4                     	;# 
   787  0DA5                     	;# 
   788  0DA6                     	;# 
   789  0DA7                     	;# 
   790  0DA7                     	;# 
   791  0DA8                     	;# 
   792  0DA9                     	;# 
   793  0DAA                     	;# 
   794  0DAB                     	;# 
   795  0DAC                     	;# 
   796  0DAD                     	;# 
   797  0DAE                     	;# 
   798  0DAF                     	;# 
   799  0E0F                     	;# 
   800  0E10                     	;# 
   801  0E11                     	;# 
   802  0E12                     	;# 
   803  0E13                     	;# 
   804  0E14                     	;# 
   805  0E15                     	;# 
   806  0E16                     	;# 
   807  0E17                     	;# 
   808  0E18                     	;# 
   809  0E19                     	;# 
   810  0E1A                     	;# 
   811  0E1B                     	;# 
   812  0E1C                     	;# 
   813  0E1D                     	;# 
   814  0E1E                     	;# 
   815  0E1F                     	;# 
   816  0E20                     	;# 
   817  0E21                     	;# 
   818  0E22                     	;# 
   819  0E23                     	;# 
   820  0E24                     	;# 
   821  0E25                     	;# 
   822  0E26                     	;# 
   823  0E27                     	;# 
   824  0E28                     	;# 
   825  0E29                     	;# 
   826  0E2A                     	;# 
   827  0E2B                     	;# 
   828  0E2C                     	;# 
   829  0E2D                     	;# 
   830  0E2E                     	;# 
   831  0E90                     	;# 
   832  0E91                     	;# 
   833  0E92                     	;# 
   834  0E94                     	;# 
   835  0E95                     	;# 
   836  0E9C                     	;# 
   837  0E9D                     	;# 
   838  0E9E                     	;# 
   839  0E9F                     	;# 
   840  0EA0                     	;# 
   841  0EA1                     	;# 
   842  0EA2                     	;# 
   843  0EA3                     	;# 
   844  0EA4                     	;# 
   845  0EA5                     	;# 
   846  0EA6                     	;# 
   847  0EA7                     	;# 
   848  0F0F                     	;# 
   849  0F10                     	;# 
   850  0F11                     	;# 
   851  0F12                     	;# 
   852  0F13                     	;# 
   853  0F14                     	;# 
   854  0F15                     	;# 
   855  0F16                     	;# 
   856  0F17                     	;# 
   857  0F18                     	;# 
   858  0F19                     	;# 
   859  0F1A                     	;# 
   860  0F1B                     	;# 
   861  0F1C                     	;# 
   862  0F1D                     	;# 
   863  0F1E                     	;# 
   864  0F1F                     	;# 
   865  0F20                     	;# 
   866  0F21                     	;# 
   867  0F22                     	;# 
   868  0F23                     	;# 
   869  0F24                     	;# 
   870  0F25                     	;# 
   871  0F26                     	;# 
   872  0F27                     	;# 
   873  0F28                     	;# 
   874  0F29                     	;# 
   875  0F2A                     	;# 
   876  0F2B                     	;# 
   877  0F2C                     	;# 
   878  0F2D                     	;# 
   879  0F2E                     	;# 
   880  0F2F                     	;# 
   881  0F30                     	;# 
   882  0F31                     	;# 
   883  0F32                     	;# 
   884  0F33                     	;# 
   885  0F34                     	;# 
   886  0F35                     	;# 
   887  0F36                     	;# 
   888  0F37                     	;# 
   889  0FE4                     	;# 
   890  0FE5                     	;# 
   891  0FE6                     	;# 
   892  0FE7                     	;# 
   893  0FE8                     	;# 
   894  0FE9                     	;# 
   895  0FEA                     	;# 
   896  0FEB                     	;# 
   897  0FED                     	;# 
   898  0FEE                     	;# 
   899  0FEF                     	;# 
   900  0000                     	;# 
   901  0001                     	;# 
   902  0002                     	;# 
   903  0003                     	;# 
   904  0004                     	;# 
   905  0005                     	;# 
   906  0006                     	;# 
   907  0007                     	;# 
   908  0008                     	;# 
   909  0009                     	;# 
   910  000A                     	;# 
   911  000B                     	;# 
   912  000C                     	;# 
   913  000D                     	;# 
   914  000E                     	;# 
   915  0010                     	;# 
   916  0011                     	;# 
   917  0012                     	;# 
   918  0013                     	;# 
   919  0014                     	;# 
   920  0015                     	;# 
   921  0016                     	;# 
   922  0016                     	;# 
   923  0017                     	;# 
   924  0018                     	;# 
   925  0019                     	;# 
   926  001A                     	;# 
   927  001A                     	;# 
   928  001B                     	;# 
   929  001B                     	;# 
   930  001C                     	;# 
   931  001D                     	;# 
   932  001E                     	;# 
   933  001F                     	;# 
   934  008C                     	;# 
   935  008D                     	;# 
   936  008E                     	;# 
   937  0090                     	;# 
   938  0091                     	;# 
   939  0092                     	;# 
   940  0093                     	;# 
   941  0094                     	;# 
   942  0095                     	;# 
   943  0096                     	;# 
   944  0098                     	;# 
   945  0099                     	;# 
   946  009A                     	;# 
   947  009B                     	;# 
   948  009B                     	;# 
   949  009C                     	;# 
   950  009D                     	;# 
   951  009E                     	;# 
   952  009F                     	;# 
   953  010C                     	;# 
   954  010D                     	;# 
   955  010E                     	;# 
   956  0111                     	;# 
   957  0112                     	;# 
   958  0113                     	;# 
   959  0114                     	;# 
   960  0115                     	;# 
   961  0116                     	;# 
   962  0117                     	;# 
   963  0118                     	;# 
   964  0119                     	;# 
   965  011C                     	;# 
   966  018C                     	;# 
   967  018D                     	;# 
   968  018E                     	;# 
   969  0191                     	;# 
   970  0191                     	;# 
   971  0192                     	;# 
   972  0193                     	;# 
   973  0193                     	;# 
   974  0194                     	;# 
   975  0195                     	;# 
   976  0196                     	;# 
   977  0197                     	;# 
   978  0199                     	;# 
   979  0199                     	;# 
   980  0199                     	;# 
   981  019A                     	;# 
   982  019A                     	;# 
   983  019A                     	;# 
   984  019B                     	;# 
   985  019B                     	;# 
   986  019B                     	;# 
   987  019B                     	;# 
   988  019B                     	;# 
   989  019C                     	;# 
   990  019C                     	;# 
   991  019C                     	;# 
   992  019D                     	;# 
   993  019D                     	;# 
   994  019D                     	;# 
   995  019E                     	;# 
   996  019E                     	;# 
   997  019E                     	;# 
   998  019F                     	;# 
   999  019F                     	;# 
  1000  019F                     	;# 
  1001  019F                     	;# 
  1002  019F                     	;# 
  1003  020C                     	;# 
  1004  020D                     	;# 
  1005  020E                     	;# 
  1006  0211                     	;# 
  1007  0211                     	;# 
  1008  0212                     	;# 
  1009  0212                     	;# 
  1010  0213                     	;# 
  1011  0213                     	;# 
  1012  0214                     	;# 
  1013  0214                     	;# 
  1014  0215                     	;# 
  1015  0215                     	;# 
  1016  0215                     	;# 
  1017  0215                     	;# 
  1018  0216                     	;# 
  1019  0216                     	;# 
  1020  0217                     	;# 
  1021  0217                     	;# 
  1022  028C                     	;# 
  1023  028D                     	;# 
  1024  028E                     	;# 
  1025  0291                     	;# 
  1026  0291                     	;# 
  1027  0292                     	;# 
  1028  0293                     	;# 
  1029  0294                     	;# 
  1030  0298                     	;# 
  1031  0298                     	;# 
  1032  0299                     	;# 
  1033  029A                     	;# 
  1034  029B                     	;# 
  1035  029E                     	;# 
  1036  030C                     	;# 
  1037  030D                     	;# 
  1038  030E                     	;# 
  1039  038C                     	;# 
  1040  038D                     	;# 
  1041  038E                     	;# 
  1042  0391                     	;# 
  1043  0392                     	;# 
  1044  0393                     	;# 
  1045  0394                     	;# 
  1046  0395                     	;# 
  1047  0396                     	;# 
  1048  0397                     	;# 
  1049  0398                     	;# 
  1050  0399                     	;# 
  1051  040E                     	;# 
  1052  0413                     	;# 
  1053  0413                     	;# 
  1054  0414                     	;# 
  1055  0414                     	;# 
  1056  0415                     	;# 
  1057  0416                     	;# 
  1058  0417                     	;# 
  1059  0418                     	;# 
  1060  041A                     	;# 
  1061  041A                     	;# 
  1062  041B                     	;# 
  1063  041B                     	;# 
  1064  041C                     	;# 
  1065  041D                     	;# 
  1066  041E                     	;# 
  1067  041F                     	;# 
  1068  0493                     	;# 
  1069  0494                     	;# 
  1070  0495                     	;# 
  1071  0496                     	;# 
  1072  049A                     	;# 
  1073  049B                     	;# 
  1074  049C                     	;# 
  1075  049D                     	;# 
  1076  058C                     	;# 
  1077  058C                     	;# 
  1078  058D                     	;# 
  1079  058E                     	;# 
  1080  058E                     	;# 
  1081  058F                     	;# 
  1082  0590                     	;# 
  1083  0590                     	;# 
  1084  0591                     	;# 
  1085  0592                     	;# 
  1086  0592                     	;# 
  1087  0593                     	;# 
  1088  0594                     	;# 
  1089  0594                     	;# 
  1090  0595                     	;# 
  1091  0596                     	;# 
  1092  0596                     	;# 
  1093  0597                     	;# 
  1094  0598                     	;# 
  1095  0599                     	;# 
  1096  059A                     	;# 
  1097  059B                     	;# 
  1098  059B                     	;# 
  1099  059C                     	;# 
  1100  059D                     	;# 
  1101  060C                     	;# 
  1102  060C                     	;# 
  1103  060D                     	;# 
  1104  060E                     	;# 
  1105  060F                     	;# 
  1106  060F                     	;# 
  1107  0610                     	;# 
  1108  0611                     	;# 
  1109  0612                     	;# 
  1110  0613                     	;# 
  1111  0614                     	;# 
  1112  0617                     	;# 
  1113  0618                     	;# 
  1114  0619                     	;# 
  1115  061A                     	;# 
  1116  061B                     	;# 
  1117  061C                     	;# 
  1118  0691                     	;# 
  1119  0692                     	;# 
  1120  0693                     	;# 
  1121  0694                     	;# 
  1122  0695                     	;# 
  1123  0696                     	;# 
  1124  0697                     	;# 
  1125  0699                     	;# 
  1126  069A                     	;# 
  1127  0711                     	;# 
  1128  0712                     	;# 
  1129  0713                     	;# 
  1130  0714                     	;# 
  1131  0715                     	;# 
  1132  0718                     	;# 
  1133  0718                     	;# 
  1134  0719                     	;# 
  1135  071A                     	;# 
  1136  071A                     	;# 
  1137  071B                     	;# 
  1138  071C                     	;# 
  1139  071D                     	;# 
  1140  0791                     	;# 
  1141  0791                     	;# 
  1142  0792                     	;# 
  1143  0793                     	;# 
  1144  0793                     	;# 
  1145  0794                     	;# 
  1146  0795                     	;# 
  1147  0795                     	;# 
  1148  0796                     	;# 
  1149  0797                     	;# 
  1150  0797                     	;# 
  1151  0798                     	;# 
  1152  0799                     	;# 
  1153  079A                     	;# 
  1154  080C                     	;# 
  1155  080C                     	;# 
  1156  080D                     	;# 
  1157  080E                     	;# 
  1158  080E                     	;# 
  1159  080F                     	;# 
  1160  0810                     	;# 
  1161  0810                     	;# 
  1162  0811                     	;# 
  1163  0812                     	;# 
  1164  0812                     	;# 
  1165  0813                     	;# 
  1166  0814                     	;# 
  1167  0815                     	;# 
  1168  0816                     	;# 
  1169  0817                     	;# 
  1170  0818                     	;# 
  1171  0819                     	;# 
  1172  081A                     	;# 
  1173  081A                     	;# 
  1174  081B                     	;# 
  1175  081C                     	;# 
  1176  081C                     	;# 
  1177  081D                     	;# 
  1178  088C                     	;# 
  1179  088D                     	;# 
  1180  088E                     	;# 
  1181  088F                     	;# 
  1182  088F                     	;# 
  1183  0890                     	;# 
  1184  0891                     	;# 
  1185  0892                     	;# 
  1186  0893                     	;# 
  1187  0893                     	;# 
  1188  0894                     	;# 
  1189  0895                     	;# 
  1190  0896                     	;# 
  1191  0897                     	;# 
  1192  0897                     	;# 
  1193  0898                     	;# 
  1194  0899                     	;# 
  1195  0D8C                     	;# 
  1196  0D8C                     	;# 
  1197  0D8D                     	;# 
  1198  0D8E                     	;# 
  1199  0D8F                     	;# 
  1200  0D8F                     	;# 
  1201  0D90                     	;# 
  1202  0D91                     	;# 
  1203  0D92                     	;# 
  1204  0D92                     	;# 
  1205  0D93                     	;# 
  1206  0D94                     	;# 
  1207  0D95                     	;# 
  1208  0D95                     	;# 
  1209  0D96                     	;# 
  1210  0D97                     	;# 
  1211  0D98                     	;# 
  1212  0D99                     	;# 
  1213  0D9A                     	;# 
  1214  0D9B                     	;# 
  1215  0D9C                     	;# 
  1216  0D9D                     	;# 
  1217  0D9E                     	;# 
  1218  0D9E                     	;# 
  1219  0D9F                     	;# 
  1220  0DA0                     	;# 
  1221  0DA1                     	;# 
  1222  0DA1                     	;# 
  1223  0DA2                     	;# 
  1224  0DA3                     	;# 
  1225  0DA4                     	;# 
  1226  0DA4                     	;# 
  1227  0DA5                     	;# 
  1228  0DA6                     	;# 
  1229  0DA7                     	;# 
  1230  0DA7                     	;# 
  1231  0DA8                     	;# 
  1232  0DA9                     	;# 
  1233  0DAA                     	;# 
  1234  0DAB                     	;# 
  1235  0DAC                     	;# 
  1236  0DAD                     	;# 
  1237  0DAE                     	;# 
  1238  0DAF                     	;# 
  1239  0E0F                     	;# 
  1240  0E10                     	;# 
  1241  0E11                     	;# 
  1242  0E12                     	;# 
  1243  0E13                     	;# 
  1244  0E14                     	;# 
  1245  0E15                     	;# 
  1246  0E16                     	;# 
  1247  0E17                     	;# 
  1248  0E18                     	;# 
  1249  0E19                     	;# 
  1250  0E1A                     	;# 
  1251  0E1B                     	;# 
  1252  0E1C                     	;# 
  1253  0E1D                     	;# 
  1254  0E1E                     	;# 
  1255  0E1F                     	;# 
  1256  0E20                     	;# 
  1257  0E21                     	;# 
  1258  0E22                     	;# 
  1259  0E23                     	;# 
  1260  0E24                     	;# 
  1261  0E25                     	;# 
  1262  0E26                     	;# 
  1263  0E27                     	;# 
  1264  0E28                     	;# 
  1265  0E29                     	;# 
  1266  0E2A                     	;# 
  1267  0E2B                     	;# 
  1268  0E2C                     	;# 
  1269  0E2D                     	;# 
  1270  0E2E                     	;# 
  1271  0E90                     	;# 
  1272  0E91                     	;# 
  1273  0E92                     	;# 
  1274  0E94                     	;# 
  1275  0E95                     	;# 
  1276  0E9C                     	;# 
  1277  0E9D                     	;# 
  1278  0E9E                     	;# 
  1279  0E9F                     	;# 
  1280  0EA0                     	;# 
  1281  0EA1                     	;# 
  1282  0EA2                     	;# 
  1283  0EA3                     	;# 
  1284  0EA4                     	;# 
  1285  0EA5                     	;# 
  1286  0EA6                     	;# 
  1287  0EA7                     	;# 
  1288  0F0F                     	;# 
  1289  0F10                     	;# 
  1290  0F11                     	;# 
  1291  0F12                     	;# 
  1292  0F13                     	;# 
  1293  0F14                     	;# 
  1294  0F15                     	;# 
  1295  0F16                     	;# 
  1296  0F17                     	;# 
  1297  0F18                     	;# 
  1298  0F19                     	;# 
  1299  0F1A                     	;# 
  1300  0F1B                     	;# 
  1301  0F1C                     	;# 
  1302  0F1D                     	;# 
  1303  0F1E                     	;# 
  1304  0F1F                     	;# 
  1305  0F20                     	;# 
  1306  0F21                     	;# 
  1307  0F22                     	;# 
  1308  0F23                     	;# 
  1309  0F24                     	;# 
  1310  0F25                     	;# 
  1311  0F26                     	;# 
  1312  0F27                     	;# 
  1313  0F28                     	;# 
  1314  0F29                     	;# 
  1315  0F2A                     	;# 
  1316  0F2B                     	;# 
  1317  0F2C                     	;# 
  1318  0F2D                     	;# 
  1319  0F2E                     	;# 
  1320  0F2F                     	;# 
  1321  0F30                     	;# 
  1322  0F31                     	;# 
  1323  0F32                     	;# 
  1324  0F33                     	;# 
  1325  0F34                     	;# 
  1326  0F35                     	;# 
  1327  0F36                     	;# 
  1328  0F37                     	;# 
  1329  0FE4                     	;# 
  1330  0FE5                     	;# 
  1331  0FE6                     	;# 
  1332  0FE7                     	;# 
  1333  0FE8                     	;# 
  1334  0FE9                     	;# 
  1335  0FEA                     	;# 
  1336  0FEB                     	;# 
  1337  0FED                     	;# 
  1338  0FEE                     	;# 
  1339  0FEF                     	;# 
  1340  0000                     	;# 
  1341  0001                     	;# 
  1342  0002                     	;# 
  1343  0003                     	;# 
  1344  0004                     	;# 
  1345  0005                     	;# 
  1346  0006                     	;# 
  1347  0007                     	;# 
  1348  0008                     	;# 
  1349  0009                     	;# 
  1350  000A                     	;# 
  1351  000B                     	;# 
  1352  000C                     	;# 
  1353  000D                     	;# 
  1354  000E                     	;# 
  1355  0010                     	;# 
  1356  0011                     	;# 
  1357  0012                     	;# 
  1358  0013                     	;# 
  1359  0014                     	;# 
  1360  0015                     	;# 
  1361  0016                     	;# 
  1362  0016                     	;# 
  1363  0017                     	;# 
  1364  0018                     	;# 
  1365  0019                     	;# 
  1366  001A                     	;# 
  1367  001A                     	;# 
  1368  001B                     	;# 
  1369  001B                     	;# 
  1370  001C                     	;# 
  1371  001D                     	;# 
  1372  001E                     	;# 
  1373  001F                     	;# 
  1374  008C                     	;# 
  1375  008D                     	;# 
  1376  008E                     	;# 
  1377  0090                     	;# 
  1378  0091                     	;# 
  1379  0092                     	;# 
  1380  0093                     	;# 
  1381  0094                     	;# 
  1382  0095                     	;# 
  1383  0096                     	;# 
  1384  0098                     	;# 
  1385  0099                     	;# 
  1386  009A                     	;# 
  1387  009B                     	;# 
  1388  009B                     	;# 
  1389  009C                     	;# 
  1390  009D                     	;# 
  1391  009E                     	;# 
  1392  009F                     	;# 
  1393  010C                     	;# 
  1394  010D                     	;# 
  1395  010E                     	;# 
  1396  0111                     	;# 
  1397  0112                     	;# 
  1398  0113                     	;# 
  1399  0114                     	;# 
  1400  0115                     	;# 
  1401  0116                     	;# 
  1402  0117                     	;# 
  1403  0118                     	;# 
  1404  0119                     	;# 
  1405  011C                     	;# 
  1406  018C                     	;# 
  1407  018D                     	;# 
  1408  018E                     	;# 
  1409  0191                     	;# 
  1410  0191                     	;# 
  1411  0192                     	;# 
  1412  0193                     	;# 
  1413  0193                     	;# 
  1414  0194                     	;# 
  1415  0195                     	;# 
  1416  0196                     	;# 
  1417  0197                     	;# 
  1418  0199                     	;# 
  1419  0199                     	;# 
  1420  0199                     	;# 
  1421  019A                     	;# 
  1422  019A                     	;# 
  1423  019A                     	;# 
  1424  019B                     	;# 
  1425  019B                     	;# 
  1426  019B                     	;# 
  1427  019B                     	;# 
  1428  019B                     	;# 
  1429  019C                     	;# 
  1430  019C                     	;# 
  1431  019C                     	;# 
  1432  019D                     	;# 
  1433  019D                     	;# 
  1434  019D                     	;# 
  1435  019E                     	;# 
  1436  019E                     	;# 
  1437  019E                     	;# 
  1438  019F                     	;# 
  1439  019F                     	;# 
  1440  019F                     	;# 
  1441  019F                     	;# 
  1442  019F                     	;# 
  1443  020C                     	;# 
  1444  020D                     	;# 
  1445  020E                     	;# 
  1446  0211                     	;# 
  1447  0211                     	;# 
  1448  0212                     	;# 
  1449  0212                     	;# 
  1450  0213                     	;# 
  1451  0213                     	;# 
  1452  0214                     	;# 
  1453  0214                     	;# 
  1454  0215                     	;# 
  1455  0215                     	;# 
  1456  0215                     	;# 
  1457  0215                     	;# 
  1458  0216                     	;# 
  1459  0216                     	;# 
  1460  0217                     	;# 
  1461  0217                     	;# 
  1462  028C                     	;# 
  1463  028D                     	;# 
  1464  028E                     	;# 
  1465  0291                     	;# 
  1466  0291                     	;# 
  1467  0292                     	;# 
  1468  0293                     	;# 
  1469  0294                     	;# 
  1470  0298                     	;# 
  1471  0298                     	;# 
  1472  0299                     	;# 
  1473  029A                     	;# 
  1474  029B                     	;# 
  1475  029E                     	;# 
  1476  030C                     	;# 
  1477  030D                     	;# 
  1478  030E                     	;# 
  1479  038C                     	;# 
  1480  038D                     	;# 
  1481  038E                     	;# 
  1482  0391                     	;# 
  1483  0392                     	;# 
  1484  0393                     	;# 
  1485  0394                     	;# 
  1486  0395                     	;# 
  1487  0396                     	;# 
  1488  0397                     	;# 
  1489  0398                     	;# 
  1490  0399                     	;# 
  1491  040E                     	;# 
  1492  0413                     	;# 
  1493  0413                     	;# 
  1494  0414                     	;# 
  1495  0414                     	;# 
  1496  0415                     	;# 
  1497  0416                     	;# 
  1498  0417                     	;# 
  1499  0418                     	;# 
  1500  041A                     	;# 
  1501  041A                     	;# 
  1502  041B                     	;# 
  1503  041B                     	;# 
  1504  041C                     	;# 
  1505  041D                     	;# 
  1506  041E                     	;# 
  1507  041F                     	;# 
  1508  0493                     	;# 
  1509  0494                     	;# 
  1510  0495                     	;# 
  1511  0496                     	;# 
  1512  049A                     	;# 
  1513  049B                     	;# 
  1514  049C                     	;# 
  1515  049D                     	;# 
  1516  058C                     	;# 
  1517  058C                     	;# 
  1518  058D                     	;# 
  1519  058E                     	;# 
  1520  058E                     	;# 
  1521  058F                     	;# 
  1522  0590                     	;# 
  1523  0590                     	;# 
  1524  0591                     	;# 
  1525  0592                     	;# 
  1526  0592                     	;# 
  1527  0593                     	;# 
  1528  0594                     	;# 
  1529  0594                     	;# 
  1530  0595                     	;# 
  1531  0596                     	;# 
  1532  0596                     	;# 
  1533  0597                     	;# 
  1534  0598                     	;# 
  1535  0599                     	;# 
  1536  059A                     	;# 
  1537  059B                     	;# 
  1538  059B                     	;# 
  1539  059C                     	;# 
  1540  059D                     	;# 
  1541  060C                     	;# 
  1542  060C                     	;# 
  1543  060D                     	;# 
  1544  060E                     	;# 
  1545  060F                     	;# 
  1546  060F                     	;# 
  1547  0610                     	;# 
  1548  0611                     	;# 
  1549  0612                     	;# 
  1550  0613                     	;# 
  1551  0614                     	;# 
  1552  0617                     	;# 
  1553  0618                     	;# 
  1554  0619                     	;# 
  1555  061A                     	;# 
  1556  061B                     	;# 
  1557  061C                     	;# 
  1558  0691                     	;# 
  1559  0692                     	;# 
  1560  0693                     	;# 
  1561  0694                     	;# 
  1562  0695                     	;# 
  1563  0696                     	;# 
  1564  0697                     	;# 
  1565  0699                     	;# 
  1566  069A                     	;# 
  1567  0711                     	;# 
  1568  0712                     	;# 
  1569  0713                     	;# 
  1570  0714                     	;# 
  1571  0715                     	;# 
  1572  0718                     	;# 
  1573  0718                     	;# 
  1574  0719                     	;# 
  1575  071A                     	;# 
  1576  071A                     	;# 
  1577  071B                     	;# 
  1578  071C                     	;# 
  1579  071D                     	;# 
  1580  0791                     	;# 
  1581  0791                     	;# 
  1582  0792                     	;# 
  1583  0793                     	;# 
  1584  0793                     	;# 
  1585  0794                     	;# 
  1586  0795                     	;# 
  1587  0795                     	;# 
  1588  0796                     	;# 
  1589  0797                     	;# 
  1590  0797                     	;# 
  1591  0798                     	;# 
  1592  0799                     	;# 
  1593  079A                     	;# 
  1594  080C                     	;# 
  1595  080C                     	;# 
  1596  080D                     	;# 
  1597  080E                     	;# 
  1598  080E                     	;# 
  1599  080F                     	;# 
  1600  0810                     	;# 
  1601  0810                     	;# 
  1602  0811                     	;# 
  1603  0812                     	;# 
  1604  0812                     	;# 
  1605  0813                     	;# 
  1606  0814                     	;# 
  1607  0815                     	;# 
  1608  0816                     	;# 
  1609  0817                     	;# 
  1610  0818                     	;# 
  1611  0819                     	;# 
  1612  081A                     	;# 
  1613  081A                     	;# 
  1614  081B                     	;# 
  1615  081C                     	;# 
  1616  081C                     	;# 
  1617  081D                     	;# 
  1618  088C                     	;# 
  1619  088D                     	;# 
  1620  088E                     	;# 
  1621  088F                     	;# 
  1622  088F                     	;# 
  1623  0890                     	;# 
  1624  0891                     	;# 
  1625  0892                     	;# 
  1626  0893                     	;# 
  1627  0893                     	;# 
  1628  0894                     	;# 
  1629  0895                     	;# 
  1630  0896                     	;# 
  1631  0897                     	;# 
  1632  0897                     	;# 
  1633  0898                     	;# 
  1634  0899                     	;# 
  1635  0D8C                     	;# 
  1636  0D8C                     	;# 
  1637  0D8D                     	;# 
  1638  0D8E                     	;# 
  1639  0D8F                     	;# 
  1640  0D8F                     	;# 
  1641  0D90                     	;# 
  1642  0D91                     	;# 
  1643  0D92                     	;# 
  1644  0D92                     	;# 
  1645  0D93                     	;# 
  1646  0D94                     	;# 
  1647  0D95                     	;# 
  1648  0D95                     	;# 
  1649  0D96                     	;# 
  1650  0D97                     	;# 
  1651  0D98                     	;# 
  1652  0D99                     	;# 
  1653  0D9A                     	;# 
  1654  0D9B                     	;# 
  1655  0D9C                     	;# 
  1656  0D9D                     	;# 
  1657  0D9E                     	;# 
  1658  0D9E                     	;# 
  1659  0D9F                     	;# 
  1660  0DA0                     	;# 
  1661  0DA1                     	;# 
  1662  0DA1                     	;# 
  1663  0DA2                     	;# 
  1664  0DA3                     	;# 
  1665  0DA4                     	;# 
  1666  0DA4                     	;# 
  1667  0DA5                     	;# 
  1668  0DA6                     	;# 
  1669  0DA7                     	;# 
  1670  0DA7                     	;# 
  1671  0DA8                     	;# 
  1672  0DA9                     	;# 
  1673  0DAA                     	;# 
  1674  0DAB                     	;# 
  1675  0DAC                     	;# 
  1676  0DAD                     	;# 
  1677  0DAE                     	;# 
  1678  0DAF                     	;# 
  1679  0E0F                     	;# 
  1680  0E10                     	;# 
  1681  0E11                     	;# 
  1682  0E12                     	;# 
  1683  0E13                     	;# 
  1684  0E14                     	;# 
  1685  0E15                     	;# 
  1686  0E16                     	;# 
  1687  0E17                     	;# 
  1688  0E18                     	;# 
  1689  0E19                     	;# 
  1690  0E1A                     	;# 
  1691  0E1B                     	;# 
  1692  0E1C                     	;# 
  1693  0E1D                     	;# 
  1694  0E1E                     	;# 
  1695  0E1F                     	;# 
  1696  0E20                     	;# 
  1697  0E21                     	;# 
  1698  0E22                     	;# 
  1699  0E23                     	;# 
  1700  0E24                     	;# 
  1701  0E25                     	;# 
  1702  0E26                     	;# 
  1703  0E27                     	;# 
  1704  0E28                     	;# 
  1705  0E29                     	;# 
  1706  0E2A                     	;# 
  1707  0E2B                     	;# 
  1708  0E2C                     	;# 
  1709  0E2D                     	;# 
  1710  0E2E                     	;# 
  1711  0E90                     	;# 
  1712  0E91                     	;# 
  1713  0E92                     	;# 
  1714  0E94                     	;# 
  1715  0E95                     	;# 
  1716  0E9C                     	;# 
  1717  0E9D                     	;# 
  1718  0E9E                     	;# 
  1719  0E9F                     	;# 
  1720  0EA0                     	;# 
  1721  0EA1                     	;# 
  1722  0EA2                     	;# 
  1723  0EA3                     	;# 
  1724  0EA4                     	;# 
  1725  0EA5                     	;# 
  1726  0EA6                     	;# 
  1727  0EA7                     	;# 
  1728  0F0F                     	;# 
  1729  0F10                     	;# 
  1730  0F11                     	;# 
  1731  0F12                     	;# 
  1732  0F13                     	;# 
  1733  0F14                     	;# 
  1734  0F15                     	;# 
  1735  0F16                     	;# 
  1736  0F17                     	;# 
  1737  0F18                     	;# 
  1738  0F19                     	;# 
  1739  0F1A                     	;# 
  1740  0F1B                     	;# 
  1741  0F1C                     	;# 
  1742  0F1D                     	;# 
  1743  0F1E                     	;# 
  1744  0F1F                     	;# 
  1745  0F20                     	;# 
  1746  0F21                     	;# 
  1747  0F22                     	;# 
  1748  0F23                     	;# 
  1749  0F24                     	;# 
  1750  0F25                     	;# 
  1751  0F26                     	;# 
  1752  0F27                     	;# 
  1753  0F28                     	;# 
  1754  0F29                     	;# 
  1755  0F2A                     	;# 
  1756  0F2B                     	;# 
  1757  0F2C                     	;# 
  1758  0F2D                     	;# 
  1759  0F2E                     	;# 
  1760  0F2F                     	;# 
  1761  0F30                     	;# 
  1762  0F31                     	;# 
  1763  0F32                     	;# 
  1764  0F33                     	;# 
  1765  0F34                     	;# 
  1766  0F35                     	;# 
  1767  0F36                     	;# 
  1768  0F37                     	;# 
  1769  0FE4                     	;# 
  1770  0FE5                     	;# 
  1771  0FE6                     	;# 
  1772  0FE7                     	;# 
  1773  0FE8                     	;# 
  1774  0FE9                     	;# 
  1775  0FEA                     	;# 
  1776  0FEB                     	;# 
  1777  0FED                     	;# 
  1778  0FEE                     	;# 
  1779  0FEF                     	;# 
  1780  0000                     	;# 
  1781  0001                     	;# 
  1782  0002                     	;# 
  1783  0003                     	;# 
  1784  0004                     	;# 
  1785  0005                     	;# 
  1786  0006                     	;# 
  1787  0007                     	;# 
  1788  0008                     	;# 
  1789  0009                     	;# 
  1790  000A                     	;# 
  1791  000B                     	;# 
  1792  000C                     	;# 
  1793  000D                     	;# 
  1794  000E                     	;# 
  1795  0010                     	;# 
  1796  0011                     	;# 
  1797  0012                     	;# 
  1798  0013                     	;# 
  1799  0014                     	;# 
  1800  0015                     	;# 
  1801  0016                     	;# 
  1802  0016                     	;# 
  1803  0017                     	;# 
  1804  0018                     	;# 
  1805  0019                     	;# 
  1806  001A                     	;# 
  1807  001A                     	;# 
  1808  001B                     	;# 
  1809  001B                     	;# 
  1810  001C                     	;# 
  1811  001D                     	;# 
  1812  001E                     	;# 
  1813  001F                     	;# 
  1814  008C                     	;# 
  1815  008D                     	;# 
  1816  008E                     	;# 
  1817  0090                     	;# 
  1818  0091                     	;# 
  1819  0092                     	;# 
  1820  0093                     	;# 
  1821  0094                     	;# 
  1822  0095                     	;# 
  1823  0096                     	;# 
  1824  0098                     	;# 
  1825  0099                     	;# 
  1826  009A                     	;# 
  1827  009B                     	;# 
  1828  009B                     	;# 
  1829  009C                     	;# 
  1830  009D                     	;# 
  1831  009E                     	;# 
  1832  009F                     	;# 
  1833  010C                     	;# 
  1834  010D                     	;# 
  1835  010E                     	;# 
  1836  0111                     	;# 
  1837  0112                     	;# 
  1838  0113                     	;# 
  1839  0114                     	;# 
  1840  0115                     	;# 
  1841  0116                     	;# 
  1842  0117                     	;# 
  1843  0118                     	;# 
  1844  0119                     	;# 
  1845  011C                     	;# 
  1846  018C                     	;# 
  1847  018D                     	;# 
  1848  018E                     	;# 
  1849  0191                     	;# 
  1850  0191                     	;# 
  1851  0192                     	;# 
  1852  0193                     	;# 
  1853  0193                     	;# 
  1854  0194                     	;# 
  1855  0195                     	;# 
  1856  0196                     	;# 
  1857  0197                     	;# 
  1858  0199                     	;# 
  1859  0199                     	;# 
  1860  0199                     	;# 
  1861  019A                     	;# 
  1862  019A                     	;# 
  1863  019A                     	;# 
  1864  019B                     	;# 
  1865  019B                     	;# 
  1866  019B                     	;# 
  1867  019B                     	;# 
  1868  019B                     	;# 
  1869  019C                     	;# 
  1870  019C                     	;# 
  1871  019C                     	;# 
  1872  019D                     	;# 
  1873  019D                     	;# 
  1874  019D                     	;# 
  1875  019E                     	;# 
  1876  019E                     	;# 
  1877  019E                     	;# 
  1878  019F                     	;# 
  1879  019F                     	;# 
  1880  019F                     	;# 
  1881  019F                     	;# 
  1882  019F                     	;# 
  1883  020C                     	;# 
  1884  020D                     	;# 
  1885  020E                     	;# 
  1886  0211                     	;# 
  1887  0211                     	;# 
  1888  0212                     	;# 
  1889  0212                     	;# 
  1890  0213                     	;# 
  1891  0213                     	;# 
  1892  0214                     	;# 
  1893  0214                     	;# 
  1894  0215                     	;# 
  1895  0215                     	;# 
  1896  0215                     	;# 
  1897  0215                     	;# 
  1898  0216                     	;# 
  1899  0216                     	;# 
  1900  0217                     	;# 
  1901  0217                     	;# 
  1902  028C                     	;# 
  1903  028D                     	;# 
  1904  028E                     	;# 
  1905  0291                     	;# 
  1906  0291                     	;# 
  1907  0292                     	;# 
  1908  0293                     	;# 
  1909  0294                     	;# 
  1910  0298                     	;# 
  1911  0298                     	;# 
  1912  0299                     	;# 
  1913  029A                     	;# 
  1914  029B                     	;# 
  1915  029E                     	;# 
  1916  030C                     	;# 
  1917  030D                     	;# 
  1918  030E                     	;# 
  1919  038C                     	;# 
  1920  038D                     	;# 
  1921  038E                     	;# 
  1922  0391                     	;# 
  1923  0392                     	;# 
  1924  0393                     	;# 
  1925  0394                     	;# 
  1926  0395                     	;# 
  1927  0396                     	;# 
  1928  0397                     	;# 
  1929  0398                     	;# 
  1930  0399                     	;# 
  1931  040E                     	;# 
  1932  0413                     	;# 
  1933  0413                     	;# 
  1934  0414                     	;# 
  1935  0414                     	;# 
  1936  0415                     	;# 
  1937  0416                     	;# 
  1938  0417                     	;# 
  1939  0418                     	;# 
  1940  041A                     	;# 
  1941  041A                     	;# 
  1942  041B                     	;# 
  1943  041B                     	;# 
  1944  041C                     	;# 
  1945  041D                     	;# 
  1946  041E                     	;# 
  1947  041F                     	;# 
  1948  0493                     	;# 
  1949  0494                     	;# 
  1950  0495                     	;# 
  1951  0496                     	;# 
  1952  049A                     	;# 
  1953  049B                     	;# 
  1954  049C                     	;# 
  1955  049D                     	;# 
  1956  058C                     	;# 
  1957  058C                     	;# 
  1958  058D                     	;# 
  1959  058E                     	;# 
  1960  058E                     	;# 
  1961  058F                     	;# 
  1962  0590                     	;# 
  1963  0590                     	;# 
  1964  0591                     	;# 
  1965  0592                     	;# 
  1966  0592                     	;# 
  1967  0593                     	;# 
  1968  0594                     	;# 
  1969  0594                     	;# 
  1970  0595                     	;# 
  1971  0596                     	;# 
  1972  0596                     	;# 
  1973  0597                     	;# 
  1974  0598                     	;# 
  1975  0599                     	;# 
  1976  059A                     	;# 
  1977  059B                     	;# 
  1978  059B                     	;# 
  1979  059C                     	;# 
  1980  059D                     	;# 
  1981  060C                     	;# 
  1982  060C                     	;# 
  1983  060D                     	;# 
  1984  060E                     	;# 
  1985  060F                     	;# 
  1986  060F                     	;# 
  1987  0610                     	;# 
  1988  0611                     	;# 
  1989  0612                     	;# 
  1990  0613                     	;# 
  1991  0614                     	;# 
  1992  0617                     	;# 
  1993  0618                     	;# 
  1994  0619                     	;# 
  1995  061A                     	;# 
  1996  061B                     	;# 
  1997  061C                     	;# 
  1998  0691                     	;# 
  1999  0692                     	;# 
  2000  0693                     	;# 
  2001  0694                     	;# 
  2002  0695                     	;# 
  2003  0696                     	;# 
  2004  0697                     	;# 
  2005  0699                     	;# 
  2006  069A                     	;# 
  2007  0711                     	;# 
  2008  0712                     	;# 
  2009  0713                     	;# 
  2010  0714                     	;# 
  2011  0715                     	;# 
  2012  0718                     	;# 
  2013  0718                     	;# 
  2014  0719                     	;# 
  2015  071A                     	;# 
  2016  071A                     	;# 
  2017  071B                     	;# 
  2018  071C                     	;# 
  2019  071D                     	;# 
  2020  0791                     	;# 
  2021  0791                     	;# 
  2022  0792                     	;# 
  2023  0793                     	;# 
  2024  0793                     	;# 
  2025  0794                     	;# 
  2026  0795                     	;# 
  2027  0795                     	;# 
  2028  0796                     	;# 
  2029  0797                     	;# 
  2030  0797                     	;# 
  2031  0798                     	;# 
  2032  0799                     	;# 
  2033  079A                     	;# 
  2034  080C                     	;# 
  2035  080C                     	;# 
  2036  080D                     	;# 
  2037  080E                     	;# 
  2038  080E                     	;# 
  2039  080F                     	;# 
  2040  0810                     	;# 
  2041  0810                     	;# 
  2042  0811                     	;# 
  2043  0812                     	;# 
  2044  0812                     	;# 
  2045  0813                     	;# 
  2046  0814                     	;# 
  2047  0815                     	;# 
  2048  0816                     	;# 
  2049  0817                     	;# 
  2050  0818                     	;# 
  2051  0819                     	;# 
  2052  081A                     	;# 
  2053  081A                     	;# 
  2054  081B                     	;# 
  2055  081C                     	;# 
  2056  081C                     	;# 
  2057  081D                     	;# 
  2058  088C                     	;# 
  2059  088D                     	;# 
  2060  088E                     	;# 
  2061  088F                     	;# 
  2062  088F                     	;# 
  2063  0890                     	;# 
  2064  0891                     	;# 
  2065  0892                     	;# 
  2066  0893                     	;# 
  2067  0893                     	;# 
  2068  0894                     	;# 
  2069  0895                     	;# 
  2070  0896                     	;# 
  2071  0897                     	;# 
  2072  0897                     	;# 
  2073  0898                     	;# 
  2074  0899                     	;# 
  2075  0D8C                     	;# 
  2076  0D8C                     	;# 
  2077  0D8D                     	;# 
  2078  0D8E                     	;# 
  2079  0D8F                     	;# 
  2080  0D8F                     	;# 
  2081  0D90                     	;# 
  2082  0D91                     	;# 
  2083  0D92                     	;# 
  2084  0D92                     	;# 
  2085  0D93                     	;# 
  2086  0D94                     	;# 
  2087  0D95                     	;# 
  2088  0D95                     	;# 
  2089  0D96                     	;# 
  2090  0D97                     	;# 
  2091  0D98                     	;# 
  2092  0D99                     	;# 
  2093  0D9A                     	;# 
  2094  0D9B                     	;# 
  2095  0D9C                     	;# 
  2096  0D9D                     	;# 
  2097  0D9E                     	;# 
  2098  0D9E                     	;# 
  2099  0D9F                     	;# 
  2100  0DA0                     	;# 
  2101  0DA1                     	;# 
  2102  0DA1                     	;# 
  2103  0DA2                     	;# 
  2104  0DA3                     	;# 
  2105  0DA4                     	;# 
  2106  0DA4                     	;# 
  2107  0DA5                     	;# 
  2108  0DA6                     	;# 
  2109  0DA7                     	;# 
  2110  0DA7                     	;# 
  2111  0DA8                     	;# 
  2112  0DA9                     	;# 
  2113  0DAA                     	;# 
  2114  0DAB                     	;# 
  2115  0DAC                     	;# 
  2116  0DAD                     	;# 
  2117  0DAE                     	;# 
  2118  0DAF                     	;# 
  2119  0E0F                     	;# 
  2120  0E10                     	;# 
  2121  0E11                     	;# 
  2122  0E12                     	;# 
  2123  0E13                     	;# 
  2124  0E14                     	;# 
  2125  0E15                     	;# 
  2126  0E16                     	;# 
  2127  0E17                     	;# 
  2128  0E18                     	;# 
  2129  0E19                     	;# 
  2130  0E1A                     	;# 
  2131  0E1B                     	;# 
  2132  0E1C                     	;# 
  2133  0E1D                     	;# 
  2134  0E1E                     	;# 
  2135  0E1F                     	;# 
  2136  0E20                     	;# 
  2137  0E21                     	;# 
  2138  0E22                     	;# 
  2139  0E23                     	;# 
  2140  0E24                     	;# 
  2141  0E25                     	;# 
  2142  0E26                     	;# 
  2143  0E27                     	;# 
  2144  0E28                     	;# 
  2145  0E29                     	;# 
  2146  0E2A                     	;# 
  2147  0E2B                     	;# 
  2148  0E2C                     	;# 
  2149  0E2D                     	;# 
  2150  0E2E                     	;# 
  2151  0E90                     	;# 
  2152  0E91                     	;# 
  2153  0E92                     	;# 
  2154  0E94                     	;# 
  2155  0E95                     	;# 
  2156  0E9C                     	;# 
  2157  0E9D                     	;# 
  2158  0E9E                     	;# 
  2159  0E9F                     	;# 
  2160  0EA0                     	;# 
  2161  0EA1                     	;# 
  2162  0EA2                     	;# 
  2163  0EA3                     	;# 
  2164  0EA4                     	;# 
  2165  0EA5                     	;# 
  2166  0EA6                     	;# 
  2167  0EA7                     	;# 
  2168  0F0F                     	;# 
  2169  0F10                     	;# 
  2170  0F11                     	;# 
  2171  0F12                     	;# 
  2172  0F13                     	;# 
  2173  0F14                     	;# 
  2174  0F15                     	;# 
  2175  0F16                     	;# 
  2176  0F17                     	;# 
  2177  0F18                     	;# 
  2178  0F19                     	;# 
  2179  0F1A                     	;# 
  2180  0F1B                     	;# 
  2181  0F1C                     	;# 
  2182  0F1D                     	;# 
  2183  0F1E                     	;# 
  2184  0F1F                     	;# 
  2185  0F20                     	;# 
  2186  0F21                     	;# 
  2187  0F22                     	;# 
  2188  0F23                     	;# 
  2189  0F24                     	;# 
  2190  0F25                     	;# 
  2191  0F26                     	;# 
  2192  0F27                     	;# 
  2193  0F28                     	;# 
  2194  0F29                     	;# 
  2195  0F2A                     	;# 
  2196  0F2B                     	;# 
  2197  0F2C                     	;# 
  2198  0F2D                     	;# 
  2199  0F2E                     	;# 
  2200  0F2F                     	;# 
  2201  0F30                     	;# 
  2202  0F31                     	;# 
  2203  0F32                     	;# 
  2204  0F33                     	;# 
  2205  0F34                     	;# 
  2206  0F35                     	;# 
  2207  0F36                     	;# 
  2208  0F37                     	;# 
  2209  0FE4                     	;# 
  2210  0FE5                     	;# 
  2211  0FE6                     	;# 
  2212  0FE7                     	;# 
  2213  0FE8                     	;# 
  2214  0FE9                     	;# 
  2215  0FEA                     	;# 
  2216  0FEB                     	;# 
  2217  0FED                     	;# 
  2218  0FEE                     	;# 
  2219  0FEF                     	;# 
  2220                           
  2221                           	psect	nvCOMMON
  2222  007D                     __pnvCOMMON:	
  2223  007D                     _lm8335Input:	
  2224  007D                     	ds	1
  2225                           
  2226                           	psect	nvBANK0
  2227  0022                     __pnvBANK0:	
  2228  0022                     _lm8335Previous:	
  2229  0022                     	ds	1
  2230  005F                     _GIE	set	95
  2231  0070                     _RC0	set	112
  2232  0071                     _RC1	set	113
  2233  0072                     _RC2	set	114
  2234  0073                     _RC3	set	115
  2235  0074                     _RC4	set	116
  2236  0075                     _RC5	set	117
  2237  0076                     _RC6	set	118
  2238  0077                     _RC7	set	119
  2239  0095                     _OPTION_REGbits	set	149
  2240  0099                     _OSCCON	set	153
  2241  009A                     _OSCSTAT	set	154
  2242  0098                     _OSCTUNE	set	152
  2243  0096                     _PCONbits	set	150
  2244  008C                     _TRISA	set	140
  2245  008D                     _TRISB	set	141
  2246  008E                     _TRISC	set	142
  2247  0118                     _DAC1CON0	set	280
  2248  0119                     _DAC1CON1	set	281
  2249  0117                     _FVRCON	set	279
  2250  0117                     _FVRCONbits	set	279
  2251  010C                     _LATA	set	268
  2252  010D                     _LATB	set	269
  2253  010E                     _LATC	set	270
  2254  0861                     _LATA1	set	2145
  2255  0862                     _LATA2	set	2146
  2256  0864                     _LATA4	set	2148
  2257  086C                     _LATB4	set	2156
  2258  086D                     _LATB5	set	2157
  2259  086E                     _LATB6	set	2158
  2260  086F                     _LATB7	set	2159
  2261  018C                     _ANSELA	set	396
  2262  018D                     _ANSELB	set	397
  2263  018E                     _ANSELC	set	398
  2264  020D                     _WPUB	set	525
  2265  020E                     _WPUC	set	526
  2266  028C                     _ODCONA	set	652
  2267  028D                     _ODCONB	set	653
  2268  0711                     _WDTCON0	set	1809
  2269  0711                     _WDTCON0bits	set	1809
  2270  0712                     _WDTCON1	set	1810
  2271                           
  2272                           ; #config settings
  2273  0000                     
  2274                           	psect	cinit
  2275  07F0                     start_initialization:	
  2276  07F0                     __initialization:	
  2277                           
  2278                           ; Clear objects allocated to COMMON
  2279  07F0  01F0               	clrf	__pbssCOMMON& (0+127)
  2280  07F1  01F1               	clrf	(__pbssCOMMON+1)& (0+127)
  2281  07F2  01F2               	clrf	(__pbssCOMMON+2)& (0+127)
  2282  07F3  01F3               	clrf	(__pbssCOMMON+3)& (0+127)
  2283  07F4  01F4               	clrf	(__pbssCOMMON+4)& (0+127)
  2284  07F5  01F5               	clrf	(__pbssCOMMON+5)& (0+127)
  2285  07F6  01F6               	clrf	(__pbssCOMMON+6)& (0+127)
  2286  07F7  01F7               	clrf	(__pbssCOMMON+7)& (0+127)
  2287  07F8  01F8               	clrf	(__pbssCOMMON+8)& (0+127)
  2288  07F9  01F9               	clrf	(__pbssCOMMON+9)& (0+127)
  2289  07FA  01FA               	clrf	(__pbssCOMMON+10)& (0+127)
  2290                           
  2291                           ; Clear objects allocated to BANK0
  2292  07FB  01A0               	clrf	__pbssBANK0& (0+127)
  2293  07FC  01A1               	clrf	(__pbssBANK0+1)& (0+127)
  2294  07FD                     end_of_initialization:	
  2295                           ;End of C runtime variable initialization code
  2296                           
  2297  07FD                     __end_of__initialization:	
  2298  07FD  0020               	movlb	0
  2299  07FE  3187  2F73         	ljmp	_main	;jump to C main() function
  2300                           
  2301                           	psect	bssCOMMON
  2302  0070                     __pbssCOMMON:	
  2303  0070                     _adcResult:	
  2304  0070                     	ds	2
  2305  0072                     _btnState:	
  2306  0072                     	ds	1
  2307  0073                     _counter:	
  2308  0073                     	ds	1
  2309  0074                     _counterHEF:	
  2310  0074                     	ds	1
  2311  0075                     _errorCheck:	
  2312  0075                     	ds	1
  2313  0076                     _i:	
  2314  0076                     	ds	1
  2315  0077                     _labNumber:	
  2316  0077                     	ds	1
  2317  0078                     _labState:	
  2318  0078                     	ds	1
  2319  0079                     _rotateReg:	
  2320  0079                     	ds	1
  2321  007A                     _switchEvent:	
  2322  007A                     	ds	1
  2323                           
  2324                           	psect	bssBANK0
  2325  0020                     __pbssBANK0:	
  2326  0020                     _delay:	
  2327  0020                     	ds	2
  2328                           
  2329                           	psect	cstackCOMMON
  2330  007B                     __pcstackCOMMON:	
  2331  007B                     ?_OSCILLATOR_Initialize:	
  2332  007B                     ??_OSCILLATOR_Initialize:	
  2333                           ; 0 bytes @ 0x0
  2334                           
  2335  007B                     ?_WWDT_Initialize:	
  2336                           ; 0 bytes @ 0x0
  2337                           
  2338  007B                     ??_WWDT_Initialize:	
  2339                           ; 0 bytes @ 0x0
  2340                           
  2341  007B                     ?_DAC1_Initialize:	
  2342                           ; 0 bytes @ 0x0
  2343                           
  2344  007B                     ??_DAC1_Initialize:	
  2345                           ; 0 bytes @ 0x0
  2346                           
  2347  007B                     ?_FVR_Initialize:	
  2348                           ; 0 bytes @ 0x0
  2349                           
  2350  007B                     ??_FVR_Initialize:	
  2351                           ; 0 bytes @ 0x0
  2352                           
  2353  007B                     ?_PIN_MANAGER_Initialize:	
  2354                           ; 0 bytes @ 0x0
  2355                           
  2356  007B                     ??_PIN_MANAGER_Initialize:	
  2357                           ; 0 bytes @ 0x0
  2358                           
  2359  007B                     ?_SYSTEM_Initialize:	
  2360                           ; 0 bytes @ 0x0
  2361                           
  2362  007B                     ??_SYSTEM_Initialize:	
  2363                           ; 0 bytes @ 0x0
  2364                           
  2365  007B                     ?_DAC1_SetOutput:	
  2366                           ; 0 bytes @ 0x0
  2367                           
  2368  007B                     ??_DAC1_SetOutput:	
  2369                           ; 0 bytes @ 0x0
  2370                           
  2371  007B                     ?_Fix_Initialize:	
  2372                           ; 0 bytes @ 0x0
  2373                           
  2374  007B                     ??_Fix_Initialize:	
  2375                           ; 0 bytes @ 0x0
  2376                           
  2377  007B                     ?_main:	
  2378                           ; 0 bytes @ 0x0
  2379                           
  2380  007B                     DAC1_SetOutput@inputData:	
  2381                           ; 0 bytes @ 0x0
  2382                           
  2383                           
  2384                           ; 1 bytes @ 0x0
  2385  007B                     	ds	1
  2386  007C                     ??_main:	
  2387                           
  2388                           ; 0 bytes @ 0x1
  2389  007C                     	ds	1
  2390                           
  2391                           	psect	maintext
  2392  0773                     __pmaintext:	
  2393 ;;
  2394 ;;Main: autosize = 0, tempsize = 1, incstack = 0, save=0
  2395 ;;
  2396 ;; *************** function _main *****************
  2397 ;; Defined at:
  2398 ;;		line 69 in file "main.c"
  2399 ;; Parameters:    Size  Location     Type
  2400 ;;		None
  2401 ;; Auto vars:     Size  Location     Type
  2402 ;;		None
  2403 ;; Return value:  Size  Location     Type
  2404 ;;		None               void
  2405 ;; Registers used:
  2406 ;;		wreg, status,2, status,0, pclath, cstack
  2407 ;; Tracked objects:
  2408 ;;		On entry : B1F/0
  2409 ;;		On exit  : 0/0
  2410 ;;		Unchanged: 0/0
  2411 ;; Data sizes:     COMMON   BANK0   BANK1   BANK2   BANK3   BANK4   BANK5   BANK6   BANK7   BANK8   BANK9  BANK10  BANK1
      +1  BANK12
  2412 ;;      Params:         0       0       0       0       0       0       0       0       0       0       0       0       
      +0       0
  2413 ;;      Locals:         0       0       0       0       0       0       0       0       0       0       0       0       
      +0       0
  2414 ;;      Temps:          1       0       0       0       0       0       0       0       0       0       0       0       
      +0       0
  2415 ;;      Totals:         1       0       0       0       0       0       0       0       0       0       0       0       
      +0       0
  2416 ;;Total ram usage:        1 bytes
  2417 ;; Hardware stack levels required when called:    2
  2418 ;; This function calls:
  2419 ;;		_DAC1_SetOutput
  2420 ;;		_Fix_Initialize
  2421 ;;		_SYSTEM_Initialize
  2422 ;; This function is called by:
  2423 ;;		Startup code after reset
  2424 ;; This function uses a non-reentrant model
  2425 ;;
  2426                           
  2427                           
  2428                           ;psect for function _main
  2429  0773                     _main:	
  2430                           
  2431                           ;main.c: 70: SYSTEM_Initialize();
  2432                           
  2433                           ;incstack = 0
  2434                           ; Regs used in _main: [wreg+status,2+status,0+pclath+cstack]
  2435  0773  3187  2748  3187   	fcall	_SYSTEM_Initialize
  2436                           
  2437                           ;main.c: 71: Fix_Initialize();
  2438  0776  3187  273F  3187   	fcall	_Fix_Initialize
  2439                           
  2440                           ;main.c: 73: lm8335Input = (RC2 << 7) +
  2441                           ;main.c: 74: (RC3 << 6) +
  2442                           ;main.c: 75: (RC4 << 5) +
  2443                           ;main.c: 76: (RC5 << 4);
  2444  0779  3000               	movlw	0
  2445  077A  0020               	movlb	0	; select bank0
  2446  077B  190E               	btfsc	14,2	;volatile
  2447  077C  3080               	movlw	128
  2448  077D  198E               	btfsc	14,3	;volatile
  2449  077E  3E40               	addlw	64
  2450  077F  1A0E               	btfsc	14,4	;volatile
  2451  0780  3E20               	addlw	32
  2452  0781  1A8E               	btfsc	14,5	;volatile
  2453  0782  3E10               	addlw	16
  2454  0783  00FC               	movwf	??_main
  2455  0784  087C               	movf	??_main,w
  2456  0785  00FD               	movwf	_lm8335Input
  2457                           
  2458                           ;main.c: 77: lm8335Previous = lm8335Input+1;
  2459  0786  087D               	movf	_lm8335Input,w
  2460  0787  3E01               	addlw	1
  2461  0788  00FC               	movwf	??_main
  2462  0789  087C               	movf	??_main,w
  2463  078A  00A2               	movwf	_lm8335Previous
  2464  078B                     l740:	
  2465                           ;main.c: 82: do { LATB7 = ~LATB7; } while(0);
  2466                           
  2467                           ;main.c: 79: while (1){
  2468                           
  2469  078B  3080               	movlw	128
  2470  078C  0022               	movlb	2	; select bank2
  2471  078D  068D               	xorwf	13,f
  2472                           
  2473                           ;main.c: 84: if (RC0)
  2474  078E  0020               	movlb	0	; select bank0
  2475  078F  1C0E               	btfss	14,0	;volatile
  2476  0790  2F94               	goto	l181
  2477                           
  2478                           ;main.c: 85: do { LATA2 = 1; } while(0);
  2479  0791  0022               	movlb	2	; select bank2
  2480  0792  150C               	bsf	12,2	;volatile
  2481  0793  2F96               	goto	l180
  2482  0794                     l181:	
  2483                           ;main.c: 86: else
  2484                           ;main.c: 87: do { LATA2 = 0; } while(0);
  2485                           
  2486  0794  0022               	movlb	2	; select bank2
  2487  0795  110C               	bcf	12,2	;volatile
  2488  0796                     l180:	
  2489                           
  2490                           ;main.c: 89: if (RC1)
  2491  0796  0020               	movlb	0	; select bank0
  2492  0797  1C8E               	btfss	14,1	;volatile
  2493  0798  2F9C               	goto	l187
  2494                           
  2495                           ;main.c: 90: do { LATB4 = 1; } while(0);
  2496  0799  0022               	movlb	2	; select bank2
  2497  079A  160D               	bsf	13,4	;volatile
  2498  079B  2F9E               	goto	l186
  2499  079C                     l187:	
  2500                           ;main.c: 91: else
  2501                           ;main.c: 92: do { LATB4 = 0; } while(0);
  2502                           
  2503  079C  0022               	movlb	2	; select bank2
  2504  079D  120D               	bcf	13,4	;volatile
  2505  079E                     l186:	
  2506                           
  2507                           ;main.c: 94: if (RC6)
  2508  079E  0020               	movlb	0	; select bank0
  2509  079F  1F0E               	btfss	14,6	;volatile
  2510  07A0  2FA4               	goto	l193
  2511                           
  2512                           ;main.c: 95: do { LATB5 = 1; } while(0);
  2513  07A1  0022               	movlb	2	; select bank2
  2514  07A2  168D               	bsf	13,5	;volatile
  2515  07A3  2FA6               	goto	l192
  2516  07A4                     l193:	
  2517                           ;main.c: 96: else
  2518                           ;main.c: 97: do { LATB5 = 0; } while(0);
  2519                           
  2520  07A4  0022               	movlb	2	; select bank2
  2521  07A5  128D               	bcf	13,5	;volatile
  2522  07A6                     l192:	
  2523                           
  2524                           ;main.c: 99: if (RC7)
  2525  07A6  0020               	movlb	0	; select bank0
  2526  07A7  1F8E               	btfss	14,7	;volatile
  2527  07A8  2FAB               	goto	l746
  2528                           
  2529                           ;main.c: 100: DAC1_SetOutput(1);
  2530  07A9  3001               	movlw	1
  2531  07AA  2FAC               	goto	L1
  2532  07AB                     l746:	
  2533                           
  2534                           ;main.c: 101: else
  2535                           ;main.c: 102: DAC1_SetOutput(0);
  2536  07AB  3000               	movlw	0
  2537  07AC                     L1:	
  2538  07AC  3187  2729  3187   	fcall	_DAC1_SetOutput
  2539                           
  2540                           ;main.c: 106: lm8335Input = (RC2 << 7) +
  2541                           ;main.c: 107: (RC3 << 6) +
  2542                           ;main.c: 108: (RC4 << 5) +
  2543                           ;main.c: 109: (RC5 << 4);
  2544  07AF  3000               	movlw	0
  2545  07B0  0020               	movlb	0	; select bank0
  2546  07B1  190E               	btfsc	14,2	;volatile
  2547  07B2  3080               	movlw	128
  2548  07B3  198E               	btfsc	14,3	;volatile
  2549  07B4  3E40               	addlw	64
  2550  07B5  1A0E               	btfsc	14,4	;volatile
  2551  07B6  3E20               	addlw	32
  2552  07B7  1A8E               	btfsc	14,5	;volatile
  2553  07B8  3E10               	addlw	16
  2554  07B9  00FC               	movwf	??_main
  2555  07BA  087C               	movf	??_main,w
  2556  07BB  00FD               	movwf	_lm8335Input
  2557                           
  2558                           ;main.c: 111: if (lm8335Input != lm8335Previous) {
  2559  07BC  087D               	movf	_lm8335Input,w
  2560  07BD  0622               	xorwf	_lm8335Previous,w
  2561  07BE  1903               	skipnz
  2562  07BF  2F8B               	goto	l740
  2563                           
  2564                           ;main.c: 112: lm8335Previous = lm8335Input;
  2565  07C0  087D               	movf	_lm8335Input,w
  2566  07C1  00FC               	movwf	??_main
  2567  07C2  087C               	movf	??_main,w
  2568  07C3  00A2               	movwf	_lm8335Previous
  2569                           
  2570                           ;main.c: 113: do { LATA1 = 1; } while(0);
  2571  07C4  0022               	movlb	2	; select bank2
  2572  07C5  148C               	bsf	12,1	;volatile
  2573                           
  2574                           ;main.c: 116: LATA4 = 0;
  2575  07C6  120C               	bcf	12,4	;volatile
  2576                           
  2577                           ;main.c: 117: do { LATB6 = 1; } while(0);
  2578  07C7  170D               	bsf	13,6	;volatile
  2579  07C8  0000               	nop	;# 
  2580                           
  2581                           ;main.c: 119: do { LATB6 = 0; } while(0);
  2582  07C9  0022               	movlb	2	; select bank2
  2583  07CA  130D               	bcf	13,6	;volatile
  2584                           
  2585                           ;main.c: 121: for (i=0; i<8; i++) {
  2586  07CB  01F6               	clrf	_i
  2587  07CC  3008               	movlw	8
  2588  07CD  0276               	subwf	_i,w
  2589  07CE  1803               	btfsc	3,0
  2590  07CF  2FE7               	goto	l205
  2591  07D0                     l204:	
  2592                           
  2593                           ;main.c: 122: LATA4 = lm8335Input & 0x01;
  2594  07D0  1C7D               	btfss	_lm8335Input,0
  2595  07D1  2FD5               	goto	u180
  2596  07D2  0022               	movlb	2	; select bank2
  2597  07D3  160C               	bsf	12,4	;volatile
  2598  07D4  2FD7               	goto	l206
  2599  07D5                     u180:	
  2600  07D5  0022               	movlb	2	; select bank2
  2601  07D6  120C               	bcf	12,4	;volatile
  2602  07D7                     l206:	
  2603                           ;main.c: 123: do { LATB6 = 1; } while(0);
  2604                           
  2605  07D7  170D               	bsf	13,6	;volatile
  2606  07D8  0000               	nop	;# 
  2607                           
  2608                           ;main.c: 125: do { LATB6 = 0; } while(0);
  2609  07D9  0022               	movlb	2	; select bank2
  2610  07DA  130D               	bcf	13,6	;volatile
  2611                           
  2612                           ;main.c: 126: lm8335Input = lm8335Input >> 1;
  2613  07DB  367D               	lsrf	_lm8335Input,w
  2614  07DC  00FC               	movwf	??_main
  2615  07DD  087C               	movf	??_main,w
  2616  07DE  00FD               	movwf	_lm8335Input
  2617  07DF  3001               	movlw	1
  2618  07E0  00FC               	movwf	??_main
  2619  07E1  087C               	movf	??_main,w
  2620  07E2  07F6               	addwf	_i,f
  2621  07E3  3008               	movlw	8
  2622  07E4  0276               	subwf	_i,w
  2623  07E5  1C03               	skipc
  2624  07E6  2FD0               	goto	l204
  2625  07E7                     l205:	
  2626                           
  2627                           ;main.c: 127: }
  2628                           ;main.c: 130: LATA4 = 0;
  2629  07E7  120C               	bcf	12,4	;volatile
  2630                           
  2631                           ;main.c: 131: do { LATB6 = 1; } while(0);
  2632  07E8  170D               	bsf	13,6	;volatile
  2633  07E9  0000               	nop	;# 
  2634                           
  2635                           ;main.c: 133: do { LATB6 = 0; } while(0);
  2636  07EA  0022               	movlb	2	; select bank2
  2637  07EB  130D               	bcf	13,6	;volatile
  2638  07EC  0000               	nop	;# 
  2639                           
  2640                           ;main.c: 136: do { LATA1 = 0; } while(0);
  2641  07ED  0022               	movlb	2	; select bank2
  2642  07EE  108C               	bcf	12,1	;volatile
  2643                           
  2644                           ;main.c: 137: };
  2645  07EF  2F8B               	goto	l740
  2646  07F0                     __end_of_main:	
  2647                           
  2648                           	psect	text1
  2649  0748                     __ptext1:	
  2650 ;; *************** function _SYSTEM_Initialize *****************
  2651 ;; Defined at:
  2652 ;;		line 77 in file "mcc_generated_files/mcc.c"
  2653 ;; Parameters:    Size  Location     Type
  2654 ;;		None
  2655 ;; Auto vars:     Size  Location     Type
  2656 ;;		None
  2657 ;; Return value:  Size  Location     Type
  2658 ;;		None               void
  2659 ;; Registers used:
  2660 ;;		wreg, status,2, status,0, pclath, cstack
  2661 ;; Tracked objects:
  2662 ;;		On entry : 0/0
  2663 ;;		On exit  : 0/0
  2664 ;;		Unchanged: 0/0
  2665 ;; Data sizes:     COMMON   BANK0   BANK1   BANK2   BANK3   BANK4   BANK5   BANK6   BANK7   BANK8   BANK9  BANK10  BANK1
      +1  BANK12
  2666 ;;      Params:         0       0       0       0       0       0       0       0       0       0       0       0       
      +0       0
  2667 ;;      Locals:         0       0       0       0       0       0       0       0       0       0       0       0       
      +0       0
  2668 ;;      Temps:          0       0       0       0       0       0       0       0       0       0       0       0       
      +0       0
  2669 ;;      Totals:         0       0       0       0       0       0       0       0       0       0       0       0       
      +0       0
  2670 ;;Total ram usage:        0 bytes
  2671 ;; Hardware stack levels used:    1
  2672 ;; Hardware stack levels required when called:    1
  2673 ;; This function calls:
  2674 ;;		_DAC1_Initialize
  2675 ;;		_FVR_Initialize
  2676 ;;		_OSCILLATOR_Initialize
  2677 ;;		_PIN_MANAGER_Initialize
  2678 ;;		_WWDT_Initialize
  2679 ;; This function is called by:
  2680 ;;		_main
  2681 ;; This function uses a non-reentrant model
  2682 ;;
  2683                           
  2684                           
  2685                           ;psect for function _SYSTEM_Initialize
  2686  0748                     _SYSTEM_Initialize:	
  2687                           
  2688                           ;mcc.c: 78: OSCILLATOR_Initialize();
  2689                           
  2690                           ;incstack = 0
  2691                           ; Regs used in _SYSTEM_Initialize: [wreg+status,2+status,0+pclath+cstack]
  2692  0748  3187  2733  3187   	fcall	_OSCILLATOR_Initialize
  2693                           
  2694                           ;mcc.c: 79: PIN_MANAGER_Initialize();
  2695  074B  3187  2757  3187   	fcall	_PIN_MANAGER_Initialize
  2696                           
  2697                           ;mcc.c: 80: WWDT_Initialize();
  2698  074E  3187  2739  3187   	fcall	_WWDT_Initialize
  2699                           
  2700                           ;mcc.c: 81: DAC1_Initialize();
  2701  0751  3187  272E  3187   	fcall	_DAC1_Initialize
  2702                           
  2703                           ;mcc.c: 82: FVR_Initialize();
  2704  0754  3187  2725         	fcall	_FVR_Initialize
  2705  0756  0008               	return
  2706  0757                     __end_of_SYSTEM_Initialize:	
  2707                           
  2708                           	psect	text2
  2709  0739                     __ptext2:	
  2710 ;; *************** function _WWDT_Initialize *****************
  2711 ;; Defined at:
  2712 ;;		line 96 in file "mcc_generated_files/mcc.c"
  2713 ;; Parameters:    Size  Location     Type
  2714 ;;		None
  2715 ;; Auto vars:     Size  Location     Type
  2716 ;;		None
  2717 ;; Return value:  Size  Location     Type
  2718 ;;		None               void
  2719 ;; Registers used:
  2720 ;;		wreg
  2721 ;; Tracked objects:
  2722 ;;		On entry : 0/0
  2723 ;;		On exit  : 0/0
  2724 ;;		Unchanged: 0/0
  2725 ;; Data sizes:     COMMON   BANK0   BANK1   BANK2   BANK3   BANK4   BANK5   BANK6   BANK7   BANK8   BANK9  BANK10  BANK1
      +1  BANK12
  2726 ;;      Params:         0       0       0       0       0       0       0       0       0       0       0       0       
      +0       0
  2727 ;;      Locals:         0       0       0       0       0       0       0       0       0       0       0       0       
      +0       0
  2728 ;;      Temps:          0       0       0       0       0       0       0       0       0       0       0       0       
      +0       0
  2729 ;;      Totals:         0       0       0       0       0       0       0       0       0       0       0       0       
      +0       0
  2730 ;;Total ram usage:        0 bytes
  2731 ;; Hardware stack levels used:    1
  2732 ;; This function calls:
  2733 ;;		Nothing
  2734 ;; This function is called by:
  2735 ;;		_SYSTEM_Initialize
  2736 ;; This function uses a non-reentrant model
  2737 ;;
  2738                           
  2739                           
  2740                           ;psect for function _WWDT_Initialize
  2741  0739                     _WWDT_Initialize:	
  2742                           
  2743                           ;mcc.c: 98: WDTCON0 = 28;
  2744                           
  2745                           ;incstack = 0
  2746                           ; Regs used in _WWDT_Initialize: [wreg]
  2747  0739  301C               	movlw	28
  2748  073A  002E               	movlb	14	; select bank14
  2749  073B  0091               	movwf	17	;volatile
  2750                           
  2751                           ;mcc.c: 99: WDTCON1 = 6 | 16;
  2752  073C  3016               	movlw	22
  2753  073D  0092               	movwf	18	;volatile
  2754  073E  0008               	return
  2755  073F                     __end_of_WWDT_Initialize:	
  2756                           
  2757                           	psect	text3
  2758  0757                     __ptext3:	
  2759 ;; *************** function _PIN_MANAGER_Initialize *****************
  2760 ;; Defined at:
  2761 ;;		line 50 in file "mcc_generated_files/pin_manager.c"
  2762 ;; Parameters:    Size  Location     Type
  2763 ;;		None
  2764 ;; Auto vars:     Size  Location     Type
  2765 ;;		None
  2766 ;; Return value:  Size  Location     Type
  2767 ;;		None               void
  2768 ;; Registers used:
  2769 ;;		wreg, status,2
  2770 ;; Tracked objects:
  2771 ;;		On entry : 0/0
  2772 ;;		On exit  : 0/0
  2773 ;;		Unchanged: 0/0
  2774 ;; Data sizes:     COMMON   BANK0   BANK1   BANK2   BANK3   BANK4   BANK5   BANK6   BANK7   BANK8   BANK9  BANK10  BANK1
      +1  BANK12
  2775 ;;      Params:         0       0       0       0       0       0       0       0       0       0       0       0       
      +0       0
  2776 ;;      Locals:         0       0       0       0       0       0       0       0       0       0       0       0       
      +0       0
  2777 ;;      Temps:          0       0       0       0       0       0       0       0       0       0       0       0       
      +0       0
  2778 ;;      Totals:         0       0       0       0       0       0       0       0       0       0       0       0       
      +0       0
  2779 ;;Total ram usage:        0 bytes
  2780 ;; Hardware stack levels used:    1
  2781 ;; This function calls:
  2782 ;;		Nothing
  2783 ;; This function is called by:
  2784 ;;		_SYSTEM_Initialize
  2785 ;; This function uses a non-reentrant model
  2786 ;;
  2787                           
  2788                           
  2789                           ;psect for function _PIN_MANAGER_Initialize
  2790  0757                     _PIN_MANAGER_Initialize:	
  2791                           
  2792                           ;pin_manager.c: 51: LATA = 0x00;
  2793                           
  2794                           ;incstack = 0
  2795                           ; Regs used in _PIN_MANAGER_Initialize: [wreg+status,2]
  2796  0757  0022               	movlb	2	; select bank2
  2797  0758  018C               	clrf	12	;volatile
  2798                           
  2799                           ;pin_manager.c: 52: TRISA = 0x28;
  2800  0759  3028               	movlw	40
  2801  075A  0021               	movlb	1	; select bank1
  2802  075B  008C               	movwf	12	;volatile
  2803                           
  2804                           ;pin_manager.c: 53: ANSELA = 0x01;
  2805  075C  3001               	movlw	1
  2806  075D  0023               	movlb	3	; select bank3
  2807  075E  008C               	movwf	12	;volatile
  2808                           
  2809                           ;pin_manager.c: 55: LATB = 0x00;
  2810  075F  0022               	movlb	2	; select bank2
  2811  0760  018D               	clrf	13	;volatile
  2812                           
  2813                           ;pin_manager.c: 56: TRISB = 0x00;
  2814  0761  0021               	movlb	1	; select bank1
  2815  0762  018D               	clrf	13	;volatile
  2816                           
  2817                           ;pin_manager.c: 57: ANSELB = 0x00;
  2818  0763  0023               	movlb	3	; select bank3
  2819  0764  018D               	clrf	13	;volatile
  2820                           
  2821                           ;pin_manager.c: 58: WPUB = 0x00;
  2822  0765  0024               	movlb	4	; select bank4
  2823  0766  018D               	clrf	13	;volatile
  2824                           
  2825                           ;pin_manager.c: 60: LATC = 0x00;
  2826  0767  0022               	movlb	2	; select bank2
  2827  0768  018E               	clrf	14	;volatile
  2828                           
  2829                           ;pin_manager.c: 61: TRISC = 0xFF;
  2830  0769  30FF               	movlw	255
  2831  076A  0021               	movlb	1	; select bank1
  2832  076B  008E               	movwf	14	;volatile
  2833                           
  2834                           ;pin_manager.c: 62: ANSELC = 0x00;
  2835  076C  0023               	movlb	3	; select bank3
  2836  076D  018E               	clrf	14	;volatile
  2837                           
  2838                           ;pin_manager.c: 63: WPUC = 0x00;
  2839  076E  0024               	movlb	4	; select bank4
  2840  076F  018E               	clrf	14	;volatile
  2841                           
  2842                           ;pin_manager.c: 65: OPTION_REGbits.nWPUEN = 0x01;
  2843  0770  0021               	movlb	1	; select bank1
  2844  0771  1795               	bsf	21,7	;volatile
  2845  0772  0008               	return
  2846  0773                     __end_of_PIN_MANAGER_Initialize:	
  2847                           
  2848                           	psect	text4
  2849  0733                     __ptext4:	
  2850 ;; *************** function _OSCILLATOR_Initialize *****************
  2851 ;; Defined at:
  2852 ;;		line 85 in file "mcc_generated_files/mcc.c"
  2853 ;; Parameters:    Size  Location     Type
  2854 ;;		None
  2855 ;; Auto vars:     Size  Location     Type
  2856 ;;		None
  2857 ;; Return value:  Size  Location     Type
  2858 ;;		None               void
  2859 ;; Registers used:
  2860 ;;		wreg, status,2
  2861 ;; Tracked objects:
  2862 ;;		On entry : 0/0
  2863 ;;		On exit  : 0/0
  2864 ;;		Unchanged: 0/0
  2865 ;; Data sizes:     COMMON   BANK0   BANK1   BANK2   BANK3   BANK4   BANK5   BANK6   BANK7   BANK8   BANK9  BANK10  BANK1
      +1  BANK12
  2866 ;;      Params:         0       0       0       0       0       0       0       0       0       0       0       0       
      +0       0
  2867 ;;      Locals:         0       0       0       0       0       0       0       0       0       0       0       0       
      +0       0
  2868 ;;      Temps:          0       0       0       0       0       0       0       0       0       0       0       0       
      +0       0
  2869 ;;      Totals:         0       0       0       0       0       0       0       0       0       0       0       0       
      +0       0
  2870 ;;Total ram usage:        0 bytes
  2871 ;; Hardware stack levels used:    1
  2872 ;; This function calls:
  2873 ;;		Nothing
  2874 ;; This function is called by:
  2875 ;;		_SYSTEM_Initialize
  2876 ;; This function uses a non-reentrant model
  2877 ;;
  2878                           
  2879                           
  2880                           ;psect for function _OSCILLATOR_Initialize
  2881  0733                     _OSCILLATOR_Initialize:	
  2882                           
  2883                           ;mcc.c: 87: OSCCON = 0x6A;
  2884                           
  2885                           ;incstack = 0
  2886                           ; Regs used in _OSCILLATOR_Initialize: [wreg+status,2]
  2887  0733  306A               	movlw	106
  2888  0734  0021               	movlb	1	; select bank1
  2889  0735  0099               	movwf	25	;volatile
  2890                           
  2891                           ;mcc.c: 89: OSCSTAT = 0x00;
  2892  0736  019A               	clrf	26	;volatile
  2893                           
  2894                           ;mcc.c: 91: OSCTUNE = 0x00;
  2895  0737  0198               	clrf	24	;volatile
  2896  0738  0008               	return
  2897  0739                     __end_of_OSCILLATOR_Initialize:	
  2898                           
  2899                           	psect	text5
  2900  0725                     __ptext5:	
  2901 ;; *************** function _FVR_Initialize *****************
  2902 ;; Defined at:
  2903 ;;		line 58 in file "mcc_generated_files/fvr.c"
  2904 ;; Parameters:    Size  Location     Type
  2905 ;;		None
  2906 ;; Auto vars:     Size  Location     Type
  2907 ;;		None
  2908 ;; Return value:  Size  Location     Type
  2909 ;;		None               void
  2910 ;; Registers used:
  2911 ;;		wreg
  2912 ;; Tracked objects:
  2913 ;;		On entry : 0/0
  2914 ;;		On exit  : 0/0
  2915 ;;		Unchanged: 0/0
  2916 ;; Data sizes:     COMMON   BANK0   BANK1   BANK2   BANK3   BANK4   BANK5   BANK6   BANK7   BANK8   BANK9  BANK10  BANK1
      +1  BANK12
  2917 ;;      Params:         0       0       0       0       0       0       0       0       0       0       0       0       
      +0       0
  2918 ;;      Locals:         0       0       0       0       0       0       0       0       0       0       0       0       
      +0       0
  2919 ;;      Temps:          0       0       0       0       0       0       0       0       0       0       0       0       
      +0       0
  2920 ;;      Totals:         0       0       0       0       0       0       0       0       0       0       0       0       
      +0       0
  2921 ;;Total ram usage:        0 bytes
  2922 ;; Hardware stack levels used:    1
  2923 ;; This function calls:
  2924 ;;		Nothing
  2925 ;; This function is called by:
  2926 ;;		_SYSTEM_Initialize
  2927 ;; This function uses a non-reentrant model
  2928 ;;
  2929                           
  2930                           
  2931                           ;psect for function _FVR_Initialize
  2932  0725                     _FVR_Initialize:	
  2933                           
  2934                           ;fvr.c: 60: FVRCON = 0x20;
  2935                           
  2936                           ;incstack = 0
  2937                           ; Regs used in _FVR_Initialize: [wreg]
  2938  0725  3020               	movlw	32
  2939  0726  0022               	movlb	2	; select bank2
  2940  0727  0097               	movwf	23	;volatile
  2941  0728  0008               	return
  2942  0729                     __end_of_FVR_Initialize:	
  2943                           
  2944                           	psect	text6
  2945  072E                     __ptext6:	
  2946 ;; *************** function _DAC1_Initialize *****************
  2947 ;; Defined at:
  2948 ;;		line 58 in file "mcc_generated_files/dac1.c"
  2949 ;; Parameters:    Size  Location     Type
  2950 ;;		None
  2951 ;; Auto vars:     Size  Location     Type
  2952 ;;		None
  2953 ;; Return value:  Size  Location     Type
  2954 ;;		None               void
  2955 ;; Registers used:
  2956 ;;		wreg, status,2
  2957 ;; Tracked objects:
  2958 ;;		On entry : 0/0
  2959 ;;		On exit  : 0/0
  2960 ;;		Unchanged: 0/0
  2961 ;; Data sizes:     COMMON   BANK0   BANK1   BANK2   BANK3   BANK4   BANK5   BANK6   BANK7   BANK8   BANK9  BANK10  BANK1
      +1  BANK12
  2962 ;;      Params:         0       0       0       0       0       0       0       0       0       0       0       0       
      +0       0
  2963 ;;      Locals:         0       0       0       0       0       0       0       0       0       0       0       0       
      +0       0
  2964 ;;      Temps:          0       0       0       0       0       0       0       0       0       0       0       0       
      +0       0
  2965 ;;      Totals:         0       0       0       0       0       0       0       0       0       0       0       0       
      +0       0
  2966 ;;Total ram usage:        0 bytes
  2967 ;; Hardware stack levels used:    1
  2968 ;; This function calls:
  2969 ;;		Nothing
  2970 ;; This function is called by:
  2971 ;;		_SYSTEM_Initialize
  2972 ;; This function uses a non-reentrant model
  2973 ;;
  2974                           
  2975                           
  2976                           ;psect for function _DAC1_Initialize
  2977  072E                     _DAC1_Initialize:	
  2978                           
  2979                           ;dac1.c: 60: DAC1CON0 = 0xA0;
  2980                           
  2981                           ;incstack = 0
  2982                           ; Regs used in _DAC1_Initialize: [wreg+status,2]
  2983  072E  30A0               	movlw	160
  2984  072F  0022               	movlb	2	; select bank2
  2985  0730  0098               	movwf	24	;volatile
  2986                           
  2987                           ;dac1.c: 62: DAC1CON1 = 0x00;
  2988  0731  0199               	clrf	25	;volatile
  2989  0732  0008               	return
  2990  0733                     __end_of_DAC1_Initialize:	
  2991                           
  2992                           	psect	text7
  2993  073F                     __ptext7:	
  2994 ;; *************** function _Fix_Initialize *****************
  2995 ;; Defined at:
  2996 ;;		line 60 in file "main.c"
  2997 ;; Parameters:    Size  Location     Type
  2998 ;;		None
  2999 ;; Auto vars:     Size  Location     Type
  3000 ;;		None
  3001 ;; Return value:  Size  Location     Type
  3002 ;;		None               void
  3003 ;; Registers used:
  3004 ;;		wreg, status,2
  3005 ;; Tracked objects:
  3006 ;;		On entry : 0/0
  3007 ;;		On exit  : 0/0
  3008 ;;		Unchanged: 0/0
  3009 ;; Data sizes:     COMMON   BANK0   BANK1   BANK2   BANK3   BANK4   BANK5   BANK6   BANK7   BANK8   BANK9  BANK10  BANK1
      +1  BANK12
  3010 ;;      Params:         0       0       0       0       0       0       0       0       0       0       0       0       
      +0       0
  3011 ;;      Locals:         0       0       0       0       0       0       0       0       0       0       0       0       
      +0       0
  3012 ;;      Temps:          0       0       0       0       0       0       0       0       0       0       0       0       
      +0       0
  3013 ;;      Totals:         0       0       0       0       0       0       0       0       0       0       0       0       
      +0       0
  3014 ;;Total ram usage:        0 bytes
  3015 ;; Hardware stack levels used:    1
  3016 ;; This function calls:
  3017 ;;		Nothing
  3018 ;; This function is called by:
  3019 ;;		_main
  3020 ;; This function uses a non-reentrant model
  3021 ;;
  3022                           
  3023                           
  3024                           ;psect for function _Fix_Initialize
  3025  073F                     _Fix_Initialize:	
  3026                           
  3027                           ;main.c: 62: ODCONA = 0x00;
  3028                           
  3029                           ;incstack = 0
  3030                           ; Regs used in _Fix_Initialize: [wreg+status,2]
  3031  073F  0025               	movlb	5	; select bank5
  3032  0740  018C               	clrf	12	;volatile
  3033                           
  3034                           ;main.c: 63: ODCONB = 0x00;
  3035  0741  018D               	clrf	13	;volatile
  3036                           
  3037                           ;main.c: 65: WPUC = 0xFF;
  3038  0742  30FF               	movlw	255
  3039  0743  0024               	movlb	4	; select bank4
  3040  0744  008E               	movwf	14	;volatile
  3041                           
  3042                           ;main.c: 66: OPTION_REGbits.nWPUEN = 0x00;
  3043  0745  0021               	movlb	1	; select bank1
  3044  0746  1395               	bcf	21,7	;volatile
  3045  0747  0008               	return
  3046  0748                     __end_of_Fix_Initialize:	
  3047                           
  3048                           	psect	text8
  3049  0729                     __ptext8:	
  3050 ;; *************** function _DAC1_SetOutput *****************
  3051 ;; Defined at:
  3052 ;;		line 65 in file "mcc_generated_files/dac1.c"
  3053 ;; Parameters:    Size  Location     Type
  3054 ;;  inputData       1    wreg     unsigned char 
  3055 ;; Auto vars:     Size  Location     Type
  3056 ;;  inputData       1    0[COMMON] unsigned char 
  3057 ;; Return value:  Size  Location     Type
  3058 ;;		None               void
  3059 ;; Registers used:
  3060 ;;		wreg
  3061 ;; Tracked objects:
  3062 ;;		On entry : 0/0
  3063 ;;		On exit  : 0/0
  3064 ;;		Unchanged: 0/0
  3065 ;; Data sizes:     COMMON   BANK0   BANK1   BANK2   BANK3   BANK4   BANK5   BANK6   BANK7   BANK8   BANK9  BANK10  BANK1
      +1  BANK12
  3066 ;;      Params:         0       0       0       0       0       0       0       0       0       0       0       0       
      +0       0
  3067 ;;      Locals:         1       0       0       0       0       0       0       0       0       0       0       0       
      +0       0
  3068 ;;      Temps:          0       0       0       0       0       0       0       0       0       0       0       0       
      +0       0
  3069 ;;      Totals:         1       0       0       0       0       0       0       0       0       0       0       0       
      +0       0
  3070 ;;Total ram usage:        1 bytes
  3071 ;; Hardware stack levels used:    1
  3072 ;; This function calls:
  3073 ;;		Nothing
  3074 ;; This function is called by:
  3075 ;;		_main
  3076 ;; This function uses a non-reentrant model
  3077 ;;
  3078                           
  3079                           
  3080                           ;psect for function _DAC1_SetOutput
  3081  0729                     _DAC1_SetOutput:	
  3082                           
  3083                           ;incstack = 0
  3084                           ; Regs used in _DAC1_SetOutput: [wreg]
  3085                           ;DAC1_SetOutput@inputData stored from wreg
  3086  0729  00FB               	movwf	DAC1_SetOutput@inputData
  3087                           
  3088                           ;dac1.c: 66: DAC1CON1 = inputData;
  3089  072A  087B               	movf	DAC1_SetOutput@inputData,w
  3090  072B  0022               	movlb	2	; select bank2
  3091  072C  0099               	movwf	25	;volatile
  3092  072D  0008               	return
  3093  072E                     __end_of_DAC1_SetOutput:	
  3094  007E                     btemp	set	126	;btemp
  3095  007E                     wtemp	set	126
  3096  007E                     wtemp0	set	126
  3097  0080                     wtemp1	set	128
  3098  0082                     wtemp2	set	130
  3099  0084                     wtemp3	set	132
  3100  0086                     wtemp4	set	134
  3101  0088                     wtemp5	set	136
  3102  007F                     wtemp6	set	127
  3103  007E                     ttemp	set	126
  3104  007E                     ttemp0	set	126
  3105  0081                     ttemp1	set	129
  3106  0084                     ttemp2	set	132
  3107  0087                     ttemp3	set	135
  3108  007F                     ttemp4	set	127
  3109  007E                     ltemp	set	126
  3110  007E                     ltemp0	set	126
  3111  0082                     ltemp1	set	130
  3112  0086                     ltemp2	set	134
  3113  0080                     ltemp3	set	128


Data Sizes:
    Strings     0
    Constant    0
    Data        0
    BSS         13
    Persistent  2
    Stack       0

Auto Spaces:
    Space          Size  Autos    Used
    COMMON           14      2      14
    BANK0            80      0       3
    BANK1            80      0       0
    BANK2            80      0       0
    BANK3            80      0       0
    BANK4            80      0       0
    BANK5            80      0       0
    BANK6            80      0       0
    BANK7            80      0       0
    BANK8            80      0       0
    BANK9            80      0       0
    BANK10           80      0       0
    BANK11           80      0       0
    BANK12           32      0       0

Pointer List with Targets:

    None.

Critical Paths under _main in COMMON

    _main->_DAC1_SetOutput

Critical Paths under _main in BANK0

    None.

Critical Paths under _main in BANK1

    None.

Critical Paths under _main in BANK2

    None.

Critical Paths under _main in BANK3

    None.

Critical Paths under _main in BANK4

    None.

Critical Paths under _main in BANK5

    None.

Critical Paths under _main in BANK6

    None.

Critical Paths under _main in BANK7

    None.

Critical Paths under _main in BANK8

    None.

Critical Paths under _main in BANK9

    None.

Critical Paths under _main in BANK10

    None.

Critical Paths under _main in BANK11

    None.

Critical Paths under _main in BANK12

    None.

Call Graph Tables:

 ---------------------------------------------------------------------------------
 (Depth) Function   	        Calls       Base Space   Used Autos Params    Refs
 ---------------------------------------------------------------------------------
 (0) _main                                                 1     1      0      22
                                              1 COMMON     1     1      0
                     _DAC1_SetOutput
                     _Fix_Initialize
                  _SYSTEM_Initialize
 ---------------------------------------------------------------------------------
 (1) _SYSTEM_Initialize                                    0     0      0       0
                    _DAC1_Initialize
                     _FVR_Initialize
              _OSCILLATOR_Initialize
             _PIN_MANAGER_Initialize
                    _WWDT_Initialize
 ---------------------------------------------------------------------------------
 (2) _WWDT_Initialize                                      0     0      0       0
 ---------------------------------------------------------------------------------
 (2) _PIN_MANAGER_Initialize                               0     0      0       0
 ---------------------------------------------------------------------------------
 (2) _OSCILLATOR_Initialize                                0     0      0       0
 ---------------------------------------------------------------------------------
 (2) _FVR_Initialize                                       0     0      0       0
 ---------------------------------------------------------------------------------
 (2) _DAC1_Initialize                                      0     0      0       0
 ---------------------------------------------------------------------------------
 (1) _Fix_Initialize                                       0     0      0       0
 ---------------------------------------------------------------------------------
 (1) _DAC1_SetOutput                                       1     1      0      22
                                              0 COMMON     1     1      0
 ---------------------------------------------------------------------------------
 Estimated maximum stack depth 2
 ---------------------------------------------------------------------------------

 Call Graph Graphs:

 _main (ROOT)
   _DAC1_SetOutput
   _Fix_Initialize
   _SYSTEM_Initialize
     _DAC1_Initialize
     _FVR_Initialize
     _OSCILLATOR_Initialize
     _PIN_MANAGER_Initialize
     _WWDT_Initialize

 Address spaces:
Name               Size   Autos  Total    Cost      Usage
BIGRAM             3E0      0       0       0        0.0%
NULL                 0      0       0       0        0.0%
CODE                 0      0       0       0        0.0%
BITCOMMON            E      0       0       1        0.0%
BITSFR0              0      0       0       1        0.0%
SFR0                 0      0       0       1        0.0%
COMMON               E      2       E       2      100.0%
BITSFR1              0      0       0       2        0.0%
SFR1                 0      0       0       2        0.0%
BITSFR2              0      0       0       3        0.0%
SFR2                 0      0       0       3        0.0%
STACK                0      0       0       3        0.0%
BITBANK0            50      0       0       4        0.0%
BITSFR3              0      0       0       4        0.0%
SFR3                 0      0       0       4        0.0%
BANK0               50      0       3       5        3.8%
BITSFR4              0      0       0       5        0.0%
SFR4                 0      0       0       5        0.0%
BITBANK1            50      0       0       6        0.0%
BITSFR5              0      0       0       6        0.0%
SFR5                 0      0       0       6        0.0%
BANK1               50      0       0       7        0.0%
BITSFR6              0      0       0       7        0.0%
SFR6                 0      0       0       7        0.0%
BITBANK2            50      0       0       8        0.0%
BITSFR7              0      0       0       8        0.0%
SFR7                 0      0       0       8        0.0%
BANK2               50      0       0       9        0.0%
BITSFR8              0      0       0       9        0.0%
SFR8                 0      0       0       9        0.0%
BITBANK3            50      0       0      10        0.0%
BITSFR9              0      0       0      10        0.0%
SFR9                 0      0       0      10        0.0%
BANK3               50      0       0      11        0.0%
BITSFR10             0      0       0      11        0.0%
SFR10                0      0       0      11        0.0%
BITBANK4            50      0       0      12        0.0%
BITSFR11             0      0       0      12        0.0%
SFR11                0      0       0      12        0.0%
BANK4               50      0       0      13        0.0%
BITSFR12             0      0       0      13        0.0%
SFR12                0      0       0      13        0.0%
BITBANK5            50      0       0      14        0.0%
BITSFR13             0      0       0      14        0.0%
SFR13                0      0       0      14        0.0%
BANK5               50      0       0      15        0.0%
BITSFR14             0      0       0      15        0.0%
SFR14                0      0       0      15        0.0%
BITBANK6            50      0       0      16        0.0%
BITSFR15             0      0       0      16        0.0%
SFR15                0      0       0      16        0.0%
BANK6               50      0       0      17        0.0%
BITSFR16             0      0       0      17        0.0%
SFR16                0      0       0      17        0.0%
BITBANK7            50      0       0      18        0.0%
BITSFR17             0      0       0      18        0.0%
SFR17                0      0       0      18        0.0%
BANK7               50      0       0      19        0.0%
BITSFR18             0      0       0      19        0.0%
SFR18                0      0       0      19        0.0%
BITSFR19             0      0       0      20        0.0%
SFR19                0      0       0      20        0.0%
ABS                  0      0      11      20        0.0%
BITBANK8            50      0       0      21        0.0%
BITSFR20             0      0       0      21        0.0%
SFR20                0      0       0      21        0.0%
BANK8               50      0       0      22        0.0%
BITSFR21             0      0       0      22        0.0%
SFR21                0      0       0      22        0.0%
BITBANK9            50      0       0      23        0.0%
BITSFR22             0      0       0      23        0.0%
SFR22                0      0       0      23        0.0%
BANK9               50      0       0      24        0.0%
BITSFR23             0      0       0      24        0.0%
SFR23                0      0       0      24        0.0%
BITBANK10           50      0       0      25        0.0%
BITSFR24             0      0       0      25        0.0%
SFR24                0      0       0      25        0.0%
BANK10              50      0       0      26        0.0%
BITSFR25             0      0       0      26        0.0%
SFR25                0      0       0      26        0.0%
BITBANK11           50      0       0      27        0.0%
BITSFR26             0      0       0      27        0.0%
SFR26                0      0       0      27        0.0%
BANK11              50      0       0      28        0.0%
BITSFR27             0      0       0      28        0.0%
SFR27                0      0       0      28        0.0%
BITBANK12           20      0       0      29        0.0%
BITSFR28             0      0       0      29        0.0%
SFR28                0      0       0      29        0.0%
BANK12              20      0       0      30        0.0%
BITSFR29             0      0       0      30        0.0%
SFR29                0      0       0      30        0.0%
BITSFR30             0      0       0      31        0.0%
SFR30                0      0       0      31        0.0%
DATA                 0      0      11      31        0.0%
BITSFR31             0      0       0      32        0.0%
SFR31                0      0       0      32        0.0%


Microchip Technology PIC Macro Assembler V1.34 build -361300703 
Symbol Table                                                                                   Wed Nov 25 17:02:37 2015

       __size_of_WWDT_Initialize 0006                                _i 0076                      __CFG_CP$OFF 0000  
         __end_of_FVR_Initialize 0729                      __CFG_LVP$ON 0000                  _DAC1_Initialize 072E  
                            l204 07D0                              l205 07E7                              l206 07D7  
                            l180 0796                              l181 0794                              l192 07A6  
                            l193 07A4                              l186 079E                              l187 079C  
                            l740 078B                              l746 07AB                              _GIE 005F  
                            _RC0 0070                              _RC1 0071                              _RC2 0072  
                            _RC3 0073                              _RC4 0074                              _RC5 0075  
                            _RC6 0076                              _RC7 0077                              u180 07D5  
                   __CFG_BORV$LO 0000                     __CFG_IESO$ON 0000                   _DAC1_SetOutput 0729  
                   __CFG_ZCD$OFF 0000                             _LATA 010C                             _LATB 010D  
                           _LATC 010E                             _WPUB 020D                             _WPUC 020E  
                   __CFG_WRT$OFF 0000                    __CFG_FCMEN$ON 0000                             _main 0773  
                           btemp 007E                    __CFG_BOREN$ON 0000                             ltemp 007E  
                           start 0002                             ttemp 007E                             wtemp 007E  
                    _switchEvent 007A                    __CFG_LPBOR$ON 0000                    __CFG_PLLEN$ON 0000  
                ?_FVR_Initialize 007B   __size_of_OSCILLATOR_Initialize 0006    __end_of_OSCILLATOR_Initialize 0739  
                          ?_main 007B                            _LATA1 0861                            _LATA2 0862  
                          _LATA4 0864                            _LATB4 086C                            _LATB5 086D  
                          _LATB6 086E                            _LATB7 086F           __end_of_DAC1_SetOutput 072E  
                          _TRISA 008C                            _TRISB 008D                            _TRISC 008E  
                          _delay 0020                            ltemp0 007E                            ltemp1 0082  
                          ltemp2 0086                            ltemp3 0080                            ttemp0 007E  
                          ttemp1 0081                            ttemp2 0084                            ttemp3 0087  
                          ttemp4 007F                            wtemp0 007E                            wtemp1 0080  
                          wtemp2 0082                            wtemp3 0084                            wtemp4 0086  
                          wtemp5 0088                            wtemp6 007F                   __CFG_MCLRE$OFF 0000  
                __initialization 07F0                     __end_of_main 07F0          __end_of_DAC1_Initialize 0733  
                         ??_main 007C                ??_WWDT_Initialize 007B                  ?_DAC1_SetOutput 007B  
                         _ANSELA 018C                           _ANSELB 018D                           _ANSELC 018E  
                         _ODCONA 028C                           _ODCONB 028D                           _FVRCON 0117  
                         _OSCCON 0099                   __CFG_PWRTE$OFF 0000          DAC1_SetOutput@inputData 007B  
                 __CFG_STVREN$ON 0000                _SYSTEM_Initialize 0748          __end_of__initialization 07FD  
             ?_SYSTEM_Initialize 007B                   __pcstackCOMMON 007B              ??_SYSTEM_Initialize 007B  
               ?_DAC1_Initialize 007B                   _OPTION_REGbits 0095        __end_of_SYSTEM_Initialize 0757  
                     __pbssBANK0 0020                       __pnvCOMMON 007D          __size_of_Fix_Initialize 0009  
               ??_FVR_Initialize 007B                       __pmaintext 0773                  __CFG_PPS1WAY$ON 0000  
                        _OSCSTAT 009A                          _OSCTUNE 0098                          _WDTCON0 0711  
                        _WDTCON1 0712                       _counterHEF 0074                  _WWDT_Initialize 0739  
                     _errorCheck 0075                 ??_DAC1_SetOutput 007B                          __ptext1 0748  
                        __ptext2 0739                          __ptext3 0757                          __ptext4 0733  
                        __ptext5 0725                          __ptext6 072E                          __ptext7 073F  
                        __ptext8 0729                          _counter 0073            _OSCILLATOR_Initialize 0733  
       ??_PIN_MANAGER_Initialize 007B       __size_of_SYSTEM_Initialize 000F                      _lm8335Input 007D  
           end_of_initialization 07FD                 __CFG_FOSC$INTOSC 0000             __CFG_WDTCCS$MFINTOSC 0000  
        __end_of_WWDT_Initialize 073F                   _Fix_Initialize 073F           ?_OSCILLATOR_Initialize 007B  
                 _lm8335Previous 0022              start_initialization 07F0  __size_of_PIN_MANAGER_Initialize 001C  
         __end_of_Fix_Initialize 0748         __size_of_DAC1_Initialize 0005                      __pbssCOMMON 0070  
                      ___latbits 0002                        _adcResult 0070                 ?_WWDT_Initialize 007B  
                ?_Fix_Initialize 007B                        __pnvBANK0 0022           _PIN_MANAGER_Initialize 0757  
                      _labNumber 0077                         _DAC1CON0 0118                         _DAC1CON1 0119  
               __CFG_WDTE$SWDTEN 0000            __CFG_WDTCWS$WDTCWS100 0000                         _PCONbits 0096  
                      _rotateReg 0079          __size_of_FVR_Initialize 0004                ??_DAC1_Initialize 007B  
        ??_OSCILLATOR_Initialize 007B          __size_of_DAC1_SetOutput 0005                         _labState 0078  
                       _btnState 0072                    __size_of_main 007D              __CFG_WDTCPS$WDTCPSE 0000  
                     _FVRCONbits 0117                 ??_Fix_Initialize 007B          ?_PIN_MANAGER_Initialize 007B  
              __CFG_CLKOUTEN$OFF 0000                      _WDTCON0bits 0711                   _FVR_Initialize 0725  
 __end_of_PIN_MANAGER_Initialize 0773  
